
pacemaker.elf:     file format elf32-littlenios2
pacemaker.elf
architecture: nios2:r1, flags 0x00000112:
EXEC_P, HAS_SYMS, D_PAGED
start address 0x00800244

Program Header:
    LOAD off    0x00001000 vaddr 0x00800000 paddr 0x00800000 align 2**12
         filesz 0x00000020 memsz 0x00000020 flags r-x
    LOAD off    0x00001020 vaddr 0x00800020 paddr 0x00800020 align 2**12
         filesz 0x0000a644 memsz 0x0000a644 flags r-x
    LOAD off    0x0000b664 vaddr 0x0080a664 paddr 0x0080c2c4 align 2**12
         filesz 0x00001c60 memsz 0x00001c60 flags rw-
    LOAD off    0x0000df24 vaddr 0x0080df24 paddr 0x0080df24 align 2**12
         filesz 0x00000000 memsz 0x00000418 flags rw-

Sections:
Idx Name          Size      VMA       LMA       File off  Algn
  0 .entry        00000020  00800000  00800000  00001000  2**5
                  CONTENTS, ALLOC, LOAD, READONLY, CODE
  1 .exceptions   00000224  00800020  00800020  00001020  2**2
                  CONTENTS, ALLOC, LOAD, READONLY, CODE
  2 .text         00009fc4  00800244  00800244  00001244  2**2
                  CONTENTS, ALLOC, LOAD, READONLY, CODE
  3 .rodata       0000045c  0080a208  0080a208  0000b208  2**2
                  CONTENTS, ALLOC, LOAD, READONLY, DATA
  4 .rwdata       00001c60  0080a664  0080c2c4  0000b664  2**2
                  CONTENTS, ALLOC, LOAD, DATA, SMALL_DATA
  5 .bss          00000418  0080df24  0080df24  0000df24  2**2
                  ALLOC, SMALL_DATA
  6 .sdram        00000000  0080e33c  0080e33c  0000d2c4  2**0
                  CONTENTS
  7 .onchip_mem   00000000  01080000  01080000  0000d2c4  2**0
                  CONTENTS
  8 .comment      00000023  00000000  00000000  0000d2c4  2**0
                  CONTENTS, READONLY
  9 .debug_aranges 00000ba8  00000000  00000000  0000d2e8  2**3
                  CONTENTS, READONLY, DEBUGGING
 10 .debug_info   0001b66c  00000000  00000000  0000de90  2**0
                  CONTENTS, READONLY, DEBUGGING
 11 .debug_abbrev 000070e3  00000000  00000000  000294fc  2**0
                  CONTENTS, READONLY, DEBUGGING
 12 .debug_line   00008b7e  00000000  00000000  000305df  2**0
                  CONTENTS, READONLY, DEBUGGING
 13 .debug_frame  00001d60  00000000  00000000  00039160  2**2
                  CONTENTS, READONLY, DEBUGGING
 14 .debug_str    0000341f  00000000  00000000  0003aec0  2**0
                  CONTENTS, READONLY, DEBUGGING
 15 .debug_loc    00004a4c  00000000  00000000  0003e2df  2**0
                  CONTENTS, READONLY, DEBUGGING
 16 .debug_alt_sim_info 00000060  00000000  00000000  00042d2c  2**2
                  CONTENTS, READONLY, DEBUGGING
 17 .debug_ranges 000006b0  00000000  00000000  00042d90  2**3
                  CONTENTS, READONLY, DEBUGGING
 18 .thread_model 00000003  00000000  00000000  000479ed  2**0
                  CONTENTS, READONLY
 19 .cpu          00000003  00000000  00000000  000479f0  2**0
                  CONTENTS, READONLY
 20 .qsys         00000001  00000000  00000000  000479f3  2**0
                  CONTENTS, READONLY
 21 .simulation_enabled 00000001  00000000  00000000  000479f4  2**0
                  CONTENTS, READONLY
 22 .sysid_hash   00000004  00000000  00000000  000479f5  2**0
                  CONTENTS, READONLY
 23 .sysid_base   00000004  00000000  00000000  000479f9  2**0
                  CONTENTS, READONLY
 24 .sysid_time   00000004  00000000  00000000  000479fd  2**0
                  CONTENTS, READONLY
 25 .stderr_dev   00000009  00000000  00000000  00047a01  2**0
                  CONTENTS, READONLY
 26 .stdin_dev    00000009  00000000  00000000  00047a0a  2**0
                  CONTENTS, READONLY
 27 .stdout_dev   00000009  00000000  00000000  00047a13  2**0
                  CONTENTS, READONLY
 28 .sopc_system_name 0000000c  00000000  00000000  00047a1c  2**0
                  CONTENTS, READONLY
 29 .quartus_project_dir 0000000c  00000000  00000000  00047a28  2**0
                  CONTENTS, READONLY
 30 .sopcinfo     0006ef27  00000000  00000000  00047a34  2**0
                  CONTENTS, READONLY
SYMBOL TABLE:
00800000 l    d  .entry	00000000 .entry
00800020 l    d  .exceptions	00000000 .exceptions
00800244 l    d  .text	00000000 .text
0080a208 l    d  .rodata	00000000 .rodata
0080a664 l    d  .rwdata	00000000 .rwdata
0080df24 l    d  .bss	00000000 .bss
0080e33c l    d  .sdram	00000000 .sdram
01080000 l    d  .onchip_mem	00000000 .onchip_mem
00000000 l    d  .comment	00000000 .comment
00000000 l    d  .debug_aranges	00000000 .debug_aranges
00000000 l    d  .debug_info	00000000 .debug_info
00000000 l    d  .debug_abbrev	00000000 .debug_abbrev
00000000 l    d  .debug_line	00000000 .debug_line
00000000 l    d  .debug_frame	00000000 .debug_frame
00000000 l    d  .debug_str	00000000 .debug_str
00000000 l    d  .debug_loc	00000000 .debug_loc
00000000 l    d  .debug_alt_sim_info	00000000 .debug_alt_sim_info
00000000 l    d  .debug_ranges	00000000 .debug_ranges
00000000 l    df *ABS*	00000000 ../pacemaker_bsp/obj/HAL/src/crt0.o
0080028c l       .text	00000000 alt_after_alt_main
00000000 l    df *ABS*	00000000 alt_irq_handler.c
00000000 l    df *ABS*	00000000 alt_instruction_exception_entry.c
00000000 l    df *ABS*	00000000 main.c
00000000 l    df *ABS*	00000000 timers.c
00000000 l    df *ABS*	00000000 uart.c
00000000 l    df *ABS*	00000000 puts.c
00000000 l    df *ABS*	00000000 strlen.c
00000000 l    df *ABS*	00000000 findfp.c
00803308 l     F .text	00000008 __fp_unlock
0080331c l     F .text	0000019c __sinit.part.1
008034b8 l     F .text	00000008 __fp_lock
00000000 l    df *ABS*	00000000 fvwrite.c
00000000 l    df *ABS*	00000000 fwalk.c
00000000 l    df *ABS*	00000000 impure.c
0080a664 l     O .rwdata	00000424 impure_data
00000000 l    df *ABS*	00000000 mallocr.c
00000000 l    df *ABS*	00000000 memchr.c
00000000 l    df *ABS*	00000000 memcpy.c
00000000 l    df *ABS*	00000000 memmove.c
00000000 l    df *ABS*	00000000 memset.c
00000000 l    df *ABS*	00000000 mallocr.c
00000000 l    df *ABS*	00000000 sbrkr.c
00000000 l    df *ABS*	00000000 stdio.c
00000000 l    df *ABS*	00000000 writer.c
00000000 l    df *ABS*	00000000 wsetup.c
00000000 l    df *ABS*	00000000 closer.c
00000000 l    df *ABS*	00000000 fclose.c
00000000 l    df *ABS*	00000000 fflush.c
00000000 l    df *ABS*	00000000 mallocr.c
00000000 l    df *ABS*	00000000 int_errno.c
00000000 l    df *ABS*	00000000 lseekr.c
00000000 l    df *ABS*	00000000 makebuf.c
00000000 l    df *ABS*	00000000 readr.c
00000000 l    df *ABS*	00000000 fstatr.c
00000000 l    df *ABS*	00000000 isattyr.c
00000000 l    df *ABS*	00000000 lib2-divmod.c
00000000 l    df *ABS*	00000000 alt_alarm_start.c
00000000 l    df *ABS*	00000000 alt_close.c
00806090 l     F .text	0000003c alt_get_errno
00000000 l    df *ABS*	00000000 alt_dev.c
0080619c l     F .text	0000002c alt_dev_null_write
00000000 l    df *ABS*	00000000 alt_errno.c
00000000 l    df *ABS*	00000000 alt_fstat.c
008061c8 l     F .text	0000003c alt_get_errno
00000000 l    df *ABS*	00000000 alt_irq_register.c
00000000 l    df *ABS*	00000000 alt_irq_vars.c
00000000 l    df *ABS*	00000000 alt_isatty.c
00806434 l     F .text	0000003c alt_get_errno
00000000 l    df *ABS*	00000000 alt_load.c
00806514 l     F .text	00000068 alt_load_section
00000000 l    df *ABS*	00000000 alt_lseek.c
00806600 l     F .text	0000003c alt_get_errno
00000000 l    df *ABS*	00000000 alt_main.c
00000000 l    df *ABS*	00000000 alt_malloc_lock.c
00000000 l    df *ABS*	00000000 alt_open.c
008067d4 l     F .text	0000003c alt_get_errno
00806810 l     F .text	000000c4 alt_file_locked
00000000 l    df *ABS*	00000000 alt_read.c
00806a28 l     F .text	0000003c alt_get_errno
00000000 l    df *ABS*	00000000 alt_release_fd.c
00000000 l    df *ABS*	00000000 alt_sbrk.c
0080c2b0 l     O .rwdata	00000004 heap_end
00000000 l    df *ABS*	00000000 alt_tick.c
00000000 l    df *ABS*	00000000 alt_write.c
00806e18 l     F .text	0000003c alt_get_errno
00000000 l    df *ABS*	00000000 alt_sys_init.c
00806f4c l     F .text	00000034 alt_dev_reg
0080b038 l     O .rwdata	00001060 jtag_uart
0080c098 l     O .rwdata	00000120 lcd
0080c1b8 l     O .rwdata	000000c4 uart
00000000 l    df *ABS*	00000000 altera_avalon_jtag_uart_fd.c
00000000 l    df *ABS*	00000000 altera_avalon_jtag_uart_init.c
00807278 l     F .text	0000020c altera_avalon_jtag_uart_irq
00807484 l     F .text	000000a0 altera_avalon_jtag_uart_timeout
00000000 l    df *ABS*	00000000 altera_avalon_jtag_uart_ioctl.c
00000000 l    df *ABS*	00000000 altera_avalon_jtag_uart_read.c
00000000 l    df *ABS*	00000000 altera_avalon_jtag_uart_write.c
00000000 l    df *ABS*	00000000 altera_avalon_lcd_16207.c
0080c2bc l     O .rwdata	00000004 colstart
00807abc l     F .text	000000b8 lcd_write_command
00807b74 l     F .text	000000d8 lcd_write_data
00807c4c l     F .text	000000d0 lcd_clear_screen
00807d1c l     F .text	000001ec lcd_repaint_screen
00807f08 l     F .text	000000cc lcd_scroll_up
00807fd4 l     F .text	000002ac lcd_handle_escape
00808758 l     F .text	000000ac alt_lcd_16207_timeout
00000000 l    df *ABS*	00000000 altera_avalon_lcd_16207_fd.c
00000000 l    df *ABS*	00000000 altera_avalon_timer_sc.c
00808998 l     F .text	00000078 alt_avalon_timer_sc_irq
00000000 l    df *ABS*	00000000 altera_avalon_uart_fd.c
00000000 l    df *ABS*	00000000 altera_avalon_uart_init.c
00808c48 l     F .text	0000009c altera_avalon_uart_irq
00808ce4 l     F .text	000000e4 altera_avalon_uart_rxirq
00808dc8 l     F .text	00000148 altera_avalon_uart_txirq
00000000 l    df *ABS*	00000000 altera_avalon_uart_read.c
00808f64 l     F .text	0000003c alt_get_errno
00000000 l    df *ABS*	00000000 altera_avalon_uart_write.c
0080917c l     F .text	0000003c alt_get_errno
00000000 l    df *ABS*	00000000 alt_dcache_flush_all.c
00000000 l    df *ABS*	00000000 alt_dev_llist_insert.c
008093ac l     F .text	0000003c alt_get_errno
00000000 l    df *ABS*	00000000 alt_do_ctors.c
00000000 l    df *ABS*	00000000 alt_do_dtors.c
00000000 l    df *ABS*	00000000 alt_find_dev.c
00000000 l    df *ABS*	00000000 alt_find_file.c
00000000 l    df *ABS*	00000000 alt_get_fd.c
00000000 l    df *ABS*	00000000 alt_icache_flush_all.c
00000000 l    df *ABS*	00000000 alt_iic.c
00000000 l    df *ABS*	00000000 alt_iic_isr_register.c
00000000 l    df *ABS*	00000000 alt_io_redirect.c
00809a5c l     F .text	000000c4 alt_open_fd
00000000 l    df *ABS*	00000000 alt_usleep.c
00000000 l    df *ABS*	00000000 altera_nios2_gen2_irq.c
00000000 l    df *ABS*	00000000 alt_busy_sleep.c
00000000 l    df *ABS*	00000000 alt_icache_flush.c
00000000 l    df *ABS*	00000000 atexit.c
00000000 l    df *ABS*	00000000 ctype_.c
0080a4e3 l     O .rodata	00000180 _ctype_b
00000000 l    df *ABS*	00000000 exit.c
00000000 l    df *ABS*	00000000 memcmp.c
00000000 l    df *ABS*	00000000 __atexit.c
00000000 l    df *ABS*	00000000 __call_atexit.c
00000000 l    df *ABS*	00000000 alt_exit.c
0080df24 g     O .bss	00000001 _cg81
0080df25 g     O .bss	00000001 _cg42
0080e090 g     O .bss	00000004 alt_instruction_exception_handler
0080df26 g     O .bss	00000001 g83
0080df27 g     O .bss	00000001 g40
0080df28 g     O .bss	00000001 LRIExpired
00805d5c g     F .text	00000054 _isatty_r
0080df29 g     O .bss	00000001 g91
00806710 g     F .text	0000007c alt_main
0080319c g     F .text	000000c0 _puts_r
0080df2a g     O .bss	00000001 APace
0080e23c g     O .bss	00000100 alt_irq
00805a84 g     F .text	00000060 _lseek_r
0080df2b g     O .bss	00000001 PRE_g95
0080df2c g     O .bss	00000001 g4
0080c2c4 g       *ABS*	00000000 __flash_rwdata_start
0080df2d g     O .bss	00000001 g108
0080df2e g     O .bss	00000001 g19
0080df2f g     O .bss	00000001 g111
0080df30 g     O .bss	00000001 PRE_g102
0080e33c g       *ABS*	00000000 __alt_heap_start
0080e0bc g     O .bss	00000018 VSenseTimerReset
00805038 g     F .text	0000005c __sseek
00803658 g     F .text	00000010 __sinit
0080e0d4 g     O .bss	00000018 LRITimer
0080df31 g     O .bss	00000001 g55
0080df32 g     O .bss	00000001 _cg96
0080df33 g     O .bss	00000001 _cg59
0080df34 g     O .bss	00000001 g27
008034c0 g     F .text	00000068 __sfmoreglue
0080df35 g     O .bss	00000001 ASenseBuffer
008067b0 g     F .text	00000024 __malloc_unlock
0080df36 g     O .bss	00000001 _cg116
0080df37 g     O .bss	00000001 g112
0080df38 g     O .bss	00000001 g3
00802f34 g     F .text	00000028 LRITimerISRReset
00804724 g     F .text	0000015c memmove
0080df39 g     O .bss	00000001 g103
0080df3a g     O .bss	00000001 PRE_g27
0080df3b g     O .bss	00000001 g47
0080df3c g     O .bss	00000001 g85
0080df3d g     O .bss	00000001 g42
00803640 g     F .text	00000018 _cleanup
0080df3e g     O .bss	00000001 g9
0080df3f g     O .bss	00000001 g94b
00802ee4 g     F .text	00000028 AEITimerISRReset
0080df40 g     O .bss	00000001 g114b
0080df44 g     O .bss	00000004 _PRE_GO
0080df48 g     O .bss	00000001 PRE_g3
0080df49 g     O .bss	00000001 g102
00809bcc g     F .text	00000024 altera_nios2_gen2_irq_init
00802fac g     F .text	00000028 PVARPTimerISRReset
0080df4a g     O .bss	00000001 g115
0080e0ec g     O .bss	00000018 AEITimer
0080df4b g     O .bss	00000001 PRE_g39
00800000 g     F .entry	0000001c __reset
0080df4c g     O .bss	00000001 PRE_g121
0080df4d g     O .bss	00000001 _cg15
0080df4e g     O .bss	00000001 PRE_g56
00800020 g       *ABS*	00000000 __flash_exceptions_start
00805d00 g     F .text	0000005c _fstat_r
0080e074 g     O .bss	00000004 errno
0080df4f g     O .bss	00000001 _cg73
0080df50 g     O .bss	00000001 g87
0080df51 g     O .bss	00000001 g44
0080df52 g     O .bss	00000001 VRPExpired
00804fb4 g     F .text	00000008 __seofread
0080df53 g     O .bss	00000001 AEIStop
00802ca4 g     F .text	00000060 AEITimerISR
0080df54 g     O .bss	00000001 g123
00803024 g     F .text	0000004c APLEDTimerISR
0080e080 g     O .bss	00000004 alt_argv
0081427c g       *ABS*	00000000 _gp
00809b9c g     F .text	00000030 usleep
0080df55 g     O .bss	00000001 _cg8
00800290 g     F .text	000000ac reset
00802e24 g     F .text	00000060 VRPTimerISR
0080df56 g     O .bss	00000001 PRE_g20
0080df57 g     O .bss	00000001 g92
0080df58 g     O .bss	00000001 g1
0080df59 g     O .bss	00000001 g61
0080aeb8 g     O .rwdata	00000180 alt_fd_list
0080df5a g     O .bss	00000001 g71
0080df5b g     O .bss	00000001 _cg110
0080df5c g     O .bss	00000001 g119_fix0
0080954c g     F .text	00000090 alt_find_dev
008045dc g     F .text	00000148 memcpy
0080e104 g     O .bss	00000018 URITimerReset
0080e11c g     O .bss	00000018 PVARPTimer
00803310 g     F .text	0000000c _cleanup_r
0080df5d g     O .bss	00000001 g82
00809b20 g     F .text	0000007c alt_io_redirect
0080df5e g     O .bss	00000001 PRE_g69
0080a208 g       *ABS*	00000000 __DTOR_END__
0080e134 g     O .bss	00000018 PVARPTimerReset
0080df5f g     O .bss	00000001 g12
0080325c g     F .text	00000014 puts
00809dd8 g     F .text	0000009c alt_exception_cause_generated_bad_addr
0080df60 g     O .bss	00000001 g97
0080df61 g     O .bss	00000001 g52
00802e84 g     F .text	00000060 PVARPTimerISR
0080df62 g     O .bss	00000001 _cg46
0080df63 g     O .bss	00000001 g118_e10
0080767c g     F .text	0000021c altera_avalon_jtag_uart_read
00805ea8 g     F .text	00000064 .hidden __udivsi3
00806470 g     F .text	000000a4 isatty
0080df64 g     O .bss	00000001 g17
0080df65 g     O .bss	00000001 PRE_g77
0080df66 g     O .bss	00000001 g119_fix1
0080df68 g     O .bss	00000004 APLEDTimerStarted
0080df6c g     O .bss	00000001 g111_e9
0080df6d g     O .bss	00000001 g76
0080df6e g     O .bss	00000001 g31
00809d48 g     F .text	00000090 alt_icache_flush
0080df6f g     O .bss	00000001 g37
0080e070 g     O .bss	00000004 __malloc_top_pad
0080df70 g     O .bss	00000001 g119_e1_fix
0080df71 g     O .bss	00000001 g62
008036a8 g     F .text	000004bc __sfvwrite_r
00804f0c g     F .text	00000054 _sbrk_r
0080df72 g     O .bss	00000001 g84
0080df73 g     O .bss	00000001 g41
00803070 g     F .text	0000004c VPLEDTimerISR
0080df74 g     O .bss	00000001 _cg26
0080df75 g     O .bss	00000001 g118
0080df76 g     O .bss	00000001 PRE_g85
00805ca0 g     F .text	00000060 _read_r
0080df77 g     O .bss	00000001 AVIStop
0080df78 g     O .bss	00000004 VRPTimerStarted
0080c2a4 g     O .rwdata	00000004 alt_max_fd
0080e14c g     O .bss	00000018 VRPTimer
008052a4 g     F .text	000000f0 _fclose_r
0080e164 g     O .bss	00000018 VRPTimerReset
00805620 g     F .text	00000030 fflush
0080e06c g     O .bss	00000004 __malloc_max_sbrked_mem
0080df7c g     O .bss	00000001 g18
008062b4 g     F .text	00000180 alt_irq_register
0080df7d g     O .bss	00000001 ASense
0080df7e g     O .bss	00000001 PRE_g104
0080df7f g     O .bss	00000001 PRE_g10
0080df80 g     O .bss	00000001 _cg101
0080df81 g     O .bss	00000001 LRIStart
0080663c g     F .text	000000d4 lseek
0080df82 g     O .bss	00000001 g98_e8
00802f84 g     F .text	00000028 VRPTimerISRReset
0080c284 g     O .rwdata	00000004 _global_impure_ptr
0080df83 g     O .bss	00000001 g48
008049a8 g     F .text	00000564 _realloc_r
0080e33c g       *ABS*	00000000 __bss_end
0080996c g     F .text	000000f0 alt_iic_isr_register
00806d10 g     F .text	00000108 alt_tick
0080df84 g     O .bss	00000001 g38
0080df85 g     O .bss	00000001 g105
00808b9c g     F .text	000000ac altera_avalon_uart_init
0080df86 g     O .bss	00000001 _cg97
00803678 g     F .text	00000018 __fp_lock_all
00809920 g     F .text	0000004c alt_ic_irq_enabled
0080df87 g     O .bss	00000001 _cg21
0080df88 g     O .bss	00000004 VPLEDTimerStarted
00806c74 g     F .text	0000009c alt_alarm_stop
0080df8c g     O .bss	00000001 g67_e5
0080e078 g     O .bss	00000004 alt_irq_active
0080df8d g     O .bss	00000001 g117
01080000 g       *ABS*	00000000 __alt_mem_onchip_mem
008000fc g     F .exceptions	000000d4 alt_irq_handler
0080ae90 g     O .rwdata	00000028 alt_dev_null
00809364 g     F .text	00000048 alt_dcache_flush_all
0080df8e g     O .bss	00000001 _cg28
0080df8f g     O .bss	00000001 g64
0080df90 g     O .bss	00000001 g21
00802a18 g     F .text	0000010c SET_output
0080df91 g     O .bss	00000001 _cg51
0080df92 g     O .bss	00000001 _cg14
0080e17c g     O .bss	00000018 URITimer
0080df93 g     O .bss	00000001 g79
0080df94 g     O .bss	00000001 g34
0080c2c4 g       *ABS*	00000000 __ram_rwdata_end
0080df95 g     O .bss	00000001 g119_e1_fix_fix
0080df96 g     O .bss	00000001 g5
0080c29c g     O .rwdata	00000008 alt_dev_list
0080df97 g     O .bss	00000001 g94
0080df98 g     O .bss	00000001 g110
0080df99 g     O .bss	00000001 g49
0080df9c g     O .bss	00000004 PVARPTimerStarted
00806e54 g     F .text	000000f8 write
0080dfa0 g     O .bss	00000001 g2
0080dfa1 g     O .bss	00000001 g7
0080a664 g       *ABS*	00000000 __ram_rodata_end
00806204 g     F .text	000000b0 fstat
0080dfa2 g     O .bss	00000001 g119_e1
0080dfa3 g     O .bss	00000001 PVARPStart
0080dfa4 g     O .bss	00000001 g80
0080c280 g     O .rwdata	00000002 charV
00805f0c g     F .text	00000058 .hidden __umodsi3
0080dfa5 g     O .bss	00000001 PRE_g80
0080dfa6 g     O .bss	00000001 g91_e7
0080e33c g       *ABS*	00000000 end
0080dfa7 g     O .bss	00000001 g100
0080dfa8 g     O .bss	00000004 LRITimerStarted
00808280 g     F .text	000004d8 altera_avalon_lcd_16207_write
00802fd4 g     F .text	00000028 ASenseTimerISRReset
0080dfac g     O .bss	00000001 g59
0080dfad g     O .bss	00000001 g99
0080dfae g     O .bss	00000001 g54
008091b8 g     F .text	000001ac altera_avalon_uart_write
0080dfaf g     O .bss	00000001 g66
0080dfb0 g     O .bss	00000001 g23
008071b8 g     F .text	000000c0 altera_avalon_jtag_uart_init
008001d0 g     F .exceptions	00000074 alt_instruction_exception_entry
0080dfb1 g     O .bss	00000001 _cg83
0080a208 g       *ABS*	00000000 __CTOR_LIST__
01000000 g       *ABS*	00000000 __alt_stack_pointer
0080dfb2 g     O .bss	00000001 _cg87
0080dfb3 g     O .bss	00000001 AVIExpired
00808a10 g     F .text	0000007c alt_avalon_timer_sc_init
00808aec g     F .text	00000060 altera_avalon_uart_write_fd
0080dfb4 g     O .bss	00000001 g34_e2
00808b4c g     F .text	00000050 altera_avalon_uart_close_fd
00807898 g     F .text	00000224 altera_avalon_jtag_uart_write
0080dfb5 g     O .bss	00000001 PRE_g71
00803668 g     F .text	00000004 __sfp_lock_acquire
008044f8 g     F .text	000000e4 memchr
0080dfb6 g     O .bss	00000001 g14
0080dfb7 g     O .bss	00000001 PRE_g36
00805774 g     F .text	00000310 _free_r
0080dfb8 g     O .bss	00000001 VRPStart
0080dfb9 g     O .bss	00000001 _cg6
0080a054 g     F .text	00000180 __call_exitprocs
0080dfba g     O .bss	00000001 g101
0080c28c g     O .rwdata	00000004 __malloc_sbrk_base
00800244 g     F .text	0000004c _start
0080dfbb g     O .bss	00000001 g114
0080e088 g     O .bss	00000004 _alt_tick_rate
0080dfbc g     O .bss	00000001 g56
0080dfbd g     O .bss	00000001 VSense
0080e08c g     O .bss	00000004 _alt_nticks
0080dfbe g     O .bss	00000001 PRE_g18
0080dfbf g     O .bss	00000001 _cg114
00806a64 g     F .text	000000fc read
00806fb8 g     F .text	0000009c alt_sys_init
0080dfc0 g     O .bss	00000001 g78
0080dfc1 g     O .bss	00000001 g33
00809f3c g     F .text	00000118 __register_exitproc
0080dfc2 g     O .bss	00000001 g122
0080dfc3 g     O .bss	00000001 g28b
0080dfc4 g     O .bss	00000001 g75_e6
00807524 g     F .text	00000068 altera_avalon_jtag_uart_close
0080dfc5 g     O .bss	00000001 PRE_g22
0080a664 g       *ABS*	00000000 __ram_rwdata_start
0080a208 g       *ABS*	00000000 __ram_rodata_start
0080e094 g     O .bss	00000028 __malloc_current_mallinfo
0080dfc6 g     O .bss	00000001 _cg64
0080dfc7 g     O .bss	00000001 _cg29
0080dfc8 g     O .bss	00000001 g123_e2
00807054 g     F .text	00000060 altera_avalon_jtag_uart_read_fd
0080dfc9 g     O .bss	00000001 g35
008096e4 g     F .text	000000a4 alt_get_fd
00809bf0 g     F .text	00000158 alt_busy_sleep
0080dfca g     O .bss	00000001 URIExpired
008026bc g     F .text	0000035c timer_check
0080dfcb g     O .bss	00000001 URIStop
0080dfcc g     O .bss	00000001 g15
00805250 g     F .text	00000054 _close_r
0080e194 g     O .bss	00000018 AVITimerReset
0080dfcd g     O .bss	00000001 g90
0080dfce g     O .bss	00000001 _GO
00809ec0 g     F .text	0000007c memcmp
00807114 g     F .text	00000050 altera_avalon_jtag_uart_close_fd
0080dfd0 g     O .bss	00000004 AVITimerStarted
0080dfd4 g     O .bss	00000001 PRE_g54
0080e33c g       *ABS*	00000000 __alt_stack_base
00807164 g     F .text	00000054 altera_avalon_jtag_uart_ioctl_fd
0080dfd5 g     O .bss	00000001 VRPStop
008050fc g     F .text	00000154 __swsetup_r
0080033c g     F .text	00002380 tick
00803528 g     F .text	00000118 __sfp
0080dfd6 g     O .bss	00000001 g63
0080dfd7 g     O .bss	00000001 g20
0080c27c g     O .rwdata	00000002 charA
0080dfd8 g     O .bss	00000001 g60
0080dfd9 g     O .bss	00000001 PRE_g107
0080dfdc g     O .bss	00000004 byte
0080aa88 g     O .rwdata	00000408 __malloc_av_
00803674 g     F .text	00000004 __sinit_lock_release
00804f60 g     F .text	00000054 __sread
0080dfe0 g     O .bss	00000001 AVIStart
0080dfe1 g     O .bss	00000001 g23b
008095dc g     F .text	00000108 alt_find_file
0080dfe2 g     O .bss	00000001 g93
008093e8 g     F .text	000000a4 alt_dev_llist_insert
0080678c g     F .text	00000024 __malloc_lock
00806bc4 g     F .text	000000b0 sbrk
0080dfe3 g     O .bss	00000001 g119
008055c4 g     F .text	0000005c _fflush_r
0080dfe4 g     O .bss	00000001 g21b
0080df24 g       *ABS*	00000000 __bss_start
0080dfe5 g     O .bss	00000001 g86
0080dfe6 g     O .bss	00000001 g43
00804880 g     F .text	00000128 memset
00802bec g     F .text	000000b8 main
0080dfe7 g     O .bss	00000001 _cg65
0080dfe8 g     O .bss	00000001 PRE_g113
0080e084 g     O .bss	00000004 alt_envp
0080dfe9 g     O .bss	00000001 g86b
0080e068 g     O .bss	00000004 __malloc_max_total_mem
0080dfea g     O .bss	00000001 _cg11
008070b4 g     F .text	00000060 altera_avalon_jtag_uart_write_fd
0080dfeb g     O .bss	00000001 VSenseBuffer
0080dfec g     O .bss	00000001 g36
00808804 g     F .text	00000134 altera_avalon_lcd_16207_init
0080dfed g     O .bss	00000001 g89
0080dfee g     O .bss	00000001 g46
00805094 g     F .text	00000008 __sclose
01000000 g       *ABS*	00000000 __alt_heap_limit
00805394 g     F .text	00000014 fclose
00802f0c g     F .text	00000028 AVITimerISRReset
00803cec g     F .text	0000080c _malloc_r
0080c2a8 g     O .rwdata	00000004 alt_errno
00803b64 g     F .text	000000c4 _fwalk
0080dfef g     O .bss	00000001 g95
0080dff0 g     O .bss	00000001 g50
0080e1ac g     O .bss	00000018 ASenseTimerReset
0080dff1 g     O .bss	00000001 g16_e1
0080dff2 g     O .bss	00000001 g96
0080dff3 g     O .bss	00000001 g51
00805db0 g     F .text	00000084 .hidden __divsi3
00805650 g     F .text	00000124 _malloc_trim_r
0080a208 g       *ABS*	00000000 __CTOR_END__
0080dff4 g     O .bss	00000001 _cg70
0080dff5 g     O .bss	00000001 _cg37
0080dff6 g     O .bss	00000001 g107
0080dff7 g     O .bss	00000001 PRE_g31
0080a208 g       *ABS*	00000000 __flash_rodata_start
0080dff8 g     O .bss	00000001 g113
0080a208 g       *ABS*	00000000 __DTOR_LIST__
008030bc g     F .text	000000e0 checkuart
0080dff9 g     O .bss	00000001 _cg117
0080dffa g     O .bss	00000001 _cg78
0080dffb g     O .bss	00000001 PRE_g48
0080dffc g     O .bss	00000001 _cg41
0080dffd g     O .bss	00000001 PRE_g61
00806f80 g     F .text	00000038 alt_irq_init
00806b60 g     F .text	00000064 alt_release_fd
0080dffe g     O .bss	00000001 g104
0080dfff g     O .bss	00000001 g13
0080e000 g     O .bss	00000001 PRE_g115
0080e001 g     O .bss	00000001 g98
0080e002 g     O .bss	00000001 g53
0080e003 g     O .bss	00000001 g8
0080e004 g     O .bss	00000001 g57
00809e74 g     F .text	00000014 atexit
0080509c g     F .text	00000060 _write_r
0080e005 g     O .bss	00000001 g70
0080e006 g     O .bss	00000001 _cg66
0080e007 g     O .bss	00000001 g52_e4
0080e008 g     O .bss	00000001 g116
0080c288 g     O .rwdata	00000004 _impure_ptr
0080e07c g     O .bss	00000004 alt_argc
0080e009 g     O .bss	00000001 g6
008053a8 g     F .text	0000021c __sflush_r
0080e00a g     O .bss	00000001 _cg19
008094ec g     F .text	00000060 _do_dtors
0080e00b g     O .bss	00000001 g72
0080e00c g     O .bss	00000001 g81
0080e010 g     O .bss	00000004 buf
00800020 g       .exceptions	00000000 alt_irq_entry
00803690 g     F .text	00000018 __fp_unlock_all
0080e014 g     O .bss	00000001 g124
0080e015 g     O .bss	00000001 _cg108
00808938 g     F .text	00000060 altera_avalon_lcd_16207_write_fd
0080e016 g     O .bss	00000001 _cg50
0080e017 g     O .bss	00000001 _cg13
0080c294 g     O .rwdata	00000008 alt_fs_list
0080e018 g     O .bss	00000001 LRIStop
0080e019 g     O .bss	00000001 g0
0080e01a g     O .bss	00000001 _cg89
0080e1c4 g     O .bss	00000018 VPLEDTimer
0080e01b g     O .bss	00000001 PRE_g100
0080e01c g     O .bss	00000001 g75
0080e01d g     O .bss	00000001 g30
0080e01e g     O .bss	00000001 g72b
00800020 g       *ABS*	00000000 __ram_exceptions_start
0080e01f g     O .bss	00000001 _cg40
0080e020 g     O .bss	00000001 PRE_g58
0080e021 g     O .bss	00000001 g16
0080e022 g     O .bss	00000001 g70b
0080e023 g     O .bss	00000001 _cg24
008097bc g     F .text	00000050 alt_ic_isr_register
0080e024 g     O .bss	00000001 g58
0080e025 g     O .bss	00000001 _cg94
0080e026 g     O .bss	00000001 _cg57
0080e027 g     O .bss	00000001 g68
0080e028 g     O .bss	00000001 g25
0080c2c4 g       *ABS*	00000000 _edata
00808a8c g     F .text	00000060 altera_avalon_uart_read_fd
0080e029 g     O .bss	00000001 PRE_g93
00802b24 g     F .text	000000c8 button_interrupt
0080e02a g     O .bss	00000001 PVARPStop
0080e33c g       *ABS*	00000000 _end
0080e02b g     O .bss	00000001 AEIExpired
00802d04 g     F .text	00000060 AVITimerISR
0080e02c g     O .bss	00000001 g11
00800244 g       *ABS*	00000000 __ram_exceptions_end
0080758c g     F .text	000000f0 altera_avalon_jtag_uart_ioctl
0080e02d g     O .bss	00000001 g65
0080e02e g     O .bss	00000001 g22
0080e02f g     O .bss	00000001 g28
0080e030 g     O .bss	00000001 g73
00809894 g     F .text	0000008c alt_ic_irq_disable
00804fbc g     F .text	0000007c __swrite
0080c290 g     O .rwdata	00000004 __malloc_trim_threshold
00809e88 g     F .text	00000038 exit
0080e1dc g     O .bss	00000018 AEITimerReset
00803c28 g     F .text	000000c4 _fwalk_reent
0080e031 g     O .bss	00000001 g77
0080e032 g     O .bss	00000001 g32
00805e34 g     F .text	00000074 .hidden __modsi3
0080c2c0 g     O .rwdata	00000004 __ctype_ptr__
0080e033 g     O .bss	00000001 AEIStart
0080e034 g     O .bss	00000001 g88
0080e035 g     O .bss	00000001 g45
01000000 g       *ABS*	00000000 __alt_data_end
00800020 g     F .exceptions	00000000 alt_exception
0080e038 g     O .bss	00000004 uart
0080366c g     F .text	00000004 __sfp_lock_release
0080e03c g     O .bss	00000001 _cg23
00802ffc g     F .text	00000028 VSenseTimerISRReset
00800000 g       *ABS*	00000000 __alt_mem_sdram
0080e03d g     O .bss	00000001 PRE_g82
0080e03e g     O .bss	00000001 _cg103
0080e03f g     O .bss	00000001 _cg55
0080e040 g     O .bss	00000001 PRE_g45
0080a3e2 g     O .rodata	00000101 _ctype_
0080e041 g     O .bss	00000001 PRE_g5
00808f10 g     F .text	00000054 altera_avalon_uart_close
0080a1d4 g     F .text	00000034 _exit
00805f64 g     F .text	0000012c alt_alarm_start
0080e042 g     O .bss	00000001 g121
0080e043 g     O .bss	00000001 _cg109
00805ae4 g     F .text	000001bc __smakebuf_r
0080e044 g     O .bss	00000004 AEITimerStarted
0080e048 g     O .bss	00000001 VPace
0080e1f4 g     O .bss	00000018 APLEDTimer
00803270 g     F .text	00000098 strlen
0080e049 g     O .bss	00000001 g39
008068d4 g     F .text	00000154 open
0080e04a g     O .bss	00000001 _cg49
0080e04b g     O .bss	00000001 g120
00809788 g     F .text	00000034 alt_icache_flush_all
0080e04c g     O .bss	00000001 g29
0080e04d g     O .bss	00000001 _cg4
0080e04e g     O .bss	00000001 g67
0080e04f g     O .bss	00000001 g24
00802d64 g     F .text	00000060 LRITimerISR
0080e20c g     O .bss	00000018 LRITimerReset
0080c2ac g     O .rwdata	00000004 alt_priority_mask
0080e050 g     O .bss	00000001 g109
0080e051 g     O .bss	00000001 _cg32
0080980c g     F .text	00000088 alt_ic_irq_enable
00808fa0 g     F .text	000001dc altera_avalon_uart_read
0080e052 g     O .bss	00000001 PRE_g7
0080e053 g     O .bss	00000001 g106
00802dc4 g     F .text	00000060 URITimerISR
00802f5c g     F .text	00000028 URITimerISRReset
0080e054 g     O .bss	00000001 g10
0080c2b4 g     O .rwdata	00000008 alt_alarm_list
0080e055 g     O .bss	00000001 PVARPExpired
0080e056 g     O .bss	00000001 _cg62
0080948c g     F .text	00000060 _do_ctors
0080e057 g     O .bss	00000001 g69
0080e058 g     O .bss	00000001 g26
008060cc g     F .text	000000d0 close
0080e05c g     O .bss	00000004 URITimerStarted
0080657c g     F .text	00000084 alt_load
0080e060 g     O .bss	00000001 _cg72
0080e224 g     O .bss	00000018 AVITimer
0080e061 g     O .bss	00000001 g43_e3
00803670 g     F .text	00000004 __sinit_lock_acquire
0080e062 g     O .bss	00000001 _cg105
0080e063 g     O .bss	00000001 URIStart
0080e064 g     O .bss	00000001 g74



Disassembly of section .entry:

00800000 <__reset>:
#if NIOS2_ICACHE_SIZE > 0 && defined(ALT_ALLOW_CODE_AT_RESET) && (!defined(ALT_SIM_OPTIMIZE) || defined(NIOS2_ECC_PRESENT))
    /* Assume the instruction cache size is always a power of two. */
#if NIOS2_ICACHE_SIZE > 0x8000
    movhi r2, %hi(NIOS2_ICACHE_SIZE)
#else
    movui r2, NIOS2_ICACHE_SIZE
  800000:	00840014 	movui	r2,4096
#endif

0:
    initi r2
  800004:	1001483a 	initi	r2
    addi r2, r2, -NIOS2_ICACHE_LINE_SIZE
  800008:	10bff804 	addi	r2,r2,-32
    bgt r2, zero, 0b
  80000c:	00bffd16 	blt	zero,r2,800004 <__alt_mem_onchip_mem+0xff780004>
 * Jump to the _start entry point in the .text section if reset code
 * is allowed or if optimizing for RTL simulation.
 */
#if defined(ALT_ALLOW_CODE_AT_RESET) || defined(ALT_SIM_OPTIMIZE)
    /* Jump to the _start entry point in the .text section. */
    movhi r1, %hi(_start)
  800010:	00402034 	movhi	at,128
    ori r1, r1, %lo(_start)
  800014:	08409114 	ori	at,at,580
    jmp r1
  800018:	0800683a 	jmp	at
  80001c:	00000000 	call	0 <__reset-0x800000>

Disassembly of section .exceptions:

00800020 <alt_exception>:

#else /* ALT_EXCEPTION_STACK disabled */
        /* 
         * Reserve space on normal stack for registers about to be pushed.
         */
        addi  sp, sp, -76
  800020:	deffed04 	addi	sp,sp,-76
         * documentation for details).
         *
         * Leave a gap in the stack frame at 4(sp) for the muldiv handler to
         * store zero into.
         */
        stw   ra,  0(sp)
  800024:	dfc00015 	stw	ra,0(sp)
        stw   r1,   8(sp)
  800028:	d8400215 	stw	at,8(sp)
        stw   r2,  12(sp)
  80002c:	d8800315 	stw	r2,12(sp)
        stw   r3,  16(sp)
  800030:	d8c00415 	stw	r3,16(sp)
        stw   r4,  20(sp)
  800034:	d9000515 	stw	r4,20(sp)
        stw   r5,  24(sp)
  800038:	d9400615 	stw	r5,24(sp)
        stw   r6,  28(sp)
  80003c:	d9800715 	stw	r6,28(sp)
        stw   r7,  32(sp)
  800040:	d9c00815 	stw	r7,32(sp)
        rdctl r5, estatus   /* Read early to avoid usage stall */
  800044:	000b307a 	rdctl	r5,estatus
        stw   r8,  36(sp)
  800048:	da000915 	stw	r8,36(sp)
        stw   r9,  40(sp)
  80004c:	da400a15 	stw	r9,40(sp)
        stw   r10, 44(sp)
  800050:	da800b15 	stw	r10,44(sp)
        stw   r11, 48(sp)
  800054:	dac00c15 	stw	r11,48(sp)
        stw   r12, 52(sp)
  800058:	db000d15 	stw	r12,52(sp)
        stw   r13, 56(sp)
  80005c:	db400e15 	stw	r13,56(sp)
        stw   r14, 60(sp)
  800060:	db800f15 	stw	r14,60(sp)
        stw   r15, 64(sp)
  800064:	dbc01015 	stw	r15,64(sp)
        /*
         * ea-4 contains the address of the instruction being executed
         * when the exception occured. For interrupt exceptions, we will
         * will be re-issue the isntruction. Store it in 72(sp)
         */
        stw   r5,  68(sp)  /* estatus */
  800068:	d9401115 	stw	r5,68(sp)
        addi  r15, ea, -4  /* instruction that caused exception */
  80006c:	ebffff04 	addi	r15,ea,-4
        stw   r15,  72(sp)
  800070:	dbc01215 	stw	r15,72(sp)
#else
        /*
         * Test to see if the exception was a software exception or caused 
         * by an external interrupt, and vector accordingly.
         */
        rdctl r4, ipending
  800074:	0009313a 	rdctl	r4,ipending
        andi  r2, r5, 1
  800078:	2880004c 	andi	r2,r5,1
        beq   r2, zero, .Lnot_irq
  80007c:	10000326 	beq	r2,zero,80008c <alt_exception+0x6c>
        beq   r4, zero, .Lnot_irq
  800080:	20000226 	beq	r4,zero,80008c <alt_exception+0x6c>
        /*
         * Now that all necessary registers have been preserved, call 
         * alt_irq_handler() to process the interrupts.
         */

        call alt_irq_handler
  800084:	08000fc0 	call	8000fc <alt_irq_handler>

        .section .exceptions.irqreturn, "xa"

        br    .Lexception_exit
  800088:	00000706 	br	8000a8 <alt_exception+0x88>
         * upon completion, so we write ea (address of instruction *after*
         * the one where the exception occured) into 72(sp). The actual
         * instruction that caused the exception is written in r2, which these
         * handlers will utilize.
         */
        stw ea, 72(sp) /* EA is PC+4 so will skip over instruction causing exception */
  80008c:	df401215 	stw	ea,72(sp)
.Lunknown_16bit:
        addi.n r4, r4, 2 /* Need PC+2 to skip over instruction causing exception */
        stw r4, 72(sp)

#else /* CDX is not Enabled and all instructions are 32bits */
        ldw r2, -4(ea) /* Instruction value that caused exception */
  800090:	e8bfff17 	ldw	r2,-4(ea)
         * debugger is present) or go into an infinite loop since the
         * handling behavior is undefined; in that case we will not return here.
         */

        /* Load exception-causing address as first argument (r4) */
        addi   r4, ea, -4
  800094:	e93fff04 	addi	r4,ea,-4

        /* Call the instruction-exception entry */
        call   alt_instruction_exception_entry
  800098:	08001d00 	call	8001d0 <alt_instruction_exception_entry>
         * instruction
         *
         * Return code was 0: Skip. The instruction after the exception is
         * already stored in 72(sp).
         */
        bne   r2, r0, .Lexception_exit
  80009c:	1000021e 	bne	r2,zero,8000a8 <alt_exception+0x88>

        /*
         * Otherwise, modify 72(sp) to re-issue the instruction that caused the
         * exception.
         */
        addi  r15, ea, -4  /* instruction that caused exception */
  8000a0:	ebffff04 	addi	r15,ea,-4
        stw   r15,  72(sp)
  8000a4:	dbc01215 	stw	r15,72(sp)
        /* 
         * Restore the saved registers, so that all general purpose registers 
         * have been restored to their state at the time the interrupt occured.
         */

        ldw   r5,  68(sp)
  8000a8:	d9401117 	ldw	r5,68(sp)
        ldw   ea,  72(sp)  /* This becomes the PC once eret is executed */
  8000ac:	df401217 	ldw	ea,72(sp)
        ldw   ra,   0(sp)
  8000b0:	dfc00017 	ldw	ra,0(sp)

        wrctl estatus, r5
  8000b4:	2801707a 	wrctl	estatus,r5

        ldw   r1,   8(sp)
  8000b8:	d8400217 	ldw	at,8(sp)
        ldw   r2,  12(sp)
  8000bc:	d8800317 	ldw	r2,12(sp)
        ldw   r3,  16(sp)
  8000c0:	d8c00417 	ldw	r3,16(sp)
        ldw   r4,  20(sp)
  8000c4:	d9000517 	ldw	r4,20(sp)
        ldw   r5,  24(sp)
  8000c8:	d9400617 	ldw	r5,24(sp)
        ldw   r6,  28(sp)
  8000cc:	d9800717 	ldw	r6,28(sp)
        ldw   r7,  32(sp)
  8000d0:	d9c00817 	ldw	r7,32(sp)

#if defined(ALT_EXCEPTION_STACK) && defined(ALT_STACK_CHECK)
        ldw   et, %gprel(alt_exception_old_stack_limit)(gp)
#endif

        ldw   r8,  36(sp)
  8000d4:	da000917 	ldw	r8,36(sp)
        ldw   r9,  40(sp)
  8000d8:	da400a17 	ldw	r9,40(sp)
        ldw   r10, 44(sp)
  8000dc:	da800b17 	ldw	r10,44(sp)
        ldw   r11, 48(sp)
  8000e0:	dac00c17 	ldw	r11,48(sp)
        ldw   r12, 52(sp)
  8000e4:	db000d17 	ldw	r12,52(sp)
        ldw   r13, 56(sp)
  8000e8:	db400e17 	ldw	r13,56(sp)
        ldw   r14, 60(sp)
  8000ec:	db800f17 	ldw	r14,60(sp)
        ldw   r15, 64(sp)
  8000f0:	dbc01017 	ldw	r15,64(sp)
        stw   et, %gprel(alt_stack_limit_value)(gp)
        stw   zero, %gprel(alt_exception_old_stack_limit)(gp)
#endif /* ALT_STACK_CHECK */
        ldw   sp,  76(sp)
#else /* ALT_EXCEPTION_STACK disabled */
        addi  sp, sp, 76
  8000f4:	dec01304 	addi	sp,sp,76

        /*
         * Return to the interrupted instruction.
         */

        eret
  8000f8:	ef80083a 	eret

008000fc <alt_irq_handler>:
 * instruction is present if the macro ALT_CI_INTERRUPT_VECTOR defined.
 */

void alt_irq_handler (void) __attribute__ ((section (".exceptions")));
void alt_irq_handler (void)
{
  8000fc:	defff904 	addi	sp,sp,-28
  800100:	dfc00615 	stw	ra,24(sp)
  800104:	df000515 	stw	fp,20(sp)
  800108:	df000504 	addi	fp,sp,20
  
  /*
   * Notify the operating system that we are at interrupt level.
   */ 
  
  ALT_OS_INT_ENTER();
  80010c:	0001883a 	nop
#ifndef NIOS2_EIC_PRESENT
static ALT_INLINE alt_u32 ALT_ALWAYS_INLINE alt_irq_pending (void)
{
  alt_u32 active;

  NIOS2_READ_IPENDING (active);
  800110:	0005313a 	rdctl	r2,ipending
  800114:	e0bffe15 	stw	r2,-8(fp)

  return active;
  800118:	e0bffe17 	ldw	r2,-8(fp)
   * Consider the case where the high priority interupt is asserted during
   * the interrupt entry sequence for a lower priority interrupt to see why
   * this is the case.
   */

  active = alt_irq_pending ();
  80011c:	e0bffb15 	stw	r2,-20(fp)

  do
  {
    i = 0;
  800120:	e03ffd15 	stw	zero,-12(fp)
    mask = 1;
  800124:	00800044 	movi	r2,1
  800128:	e0bffc15 	stw	r2,-16(fp)
     * called to clear the interrupt condition.
     */

    do
    {
      if (active & mask)
  80012c:	e0fffb17 	ldw	r3,-20(fp)
  800130:	e0bffc17 	ldw	r2,-16(fp)
  800134:	1884703a 	and	r2,r3,r2
  800138:	10001426 	beq	r2,zero,80018c <alt_irq_handler+0x90>
      { 
#ifdef ALT_ENHANCED_INTERRUPT_API_PRESENT
        alt_irq[i].handler(alt_irq[i].context); 
  80013c:	00802074 	movhi	r2,129
  800140:	10b88f04 	addi	r2,r2,-7620
  800144:	e0fffd17 	ldw	r3,-12(fp)
  800148:	180690fa 	slli	r3,r3,3
  80014c:	10c5883a 	add	r2,r2,r3
  800150:	10c00017 	ldw	r3,0(r2)
  800154:	00802074 	movhi	r2,129
  800158:	10b88f04 	addi	r2,r2,-7620
  80015c:	e13ffd17 	ldw	r4,-12(fp)
  800160:	200890fa 	slli	r4,r4,3
  800164:	1105883a 	add	r2,r2,r4
  800168:	10800104 	addi	r2,r2,4
  80016c:	10800017 	ldw	r2,0(r2)
  800170:	1009883a 	mov	r4,r2
  800174:	183ee83a 	callr	r3
#else
        alt_irq[i].handler(alt_irq[i].context, i); 
#endif
        break;
  800178:	0001883a 	nop
#ifndef NIOS2_EIC_PRESENT
static ALT_INLINE alt_u32 ALT_ALWAYS_INLINE alt_irq_pending (void)
{
  alt_u32 active;

  NIOS2_READ_IPENDING (active);
  80017c:	0005313a 	rdctl	r2,ipending
  800180:	e0bfff15 	stw	r2,-4(fp)

  return active;
  800184:	e0bfff17 	ldw	r2,-4(fp)
  800188:	00000706 	br	8001a8 <alt_irq_handler+0xac>
      }
      mask <<= 1;
  80018c:	e0bffc17 	ldw	r2,-16(fp)
  800190:	1085883a 	add	r2,r2,r2
  800194:	e0bffc15 	stw	r2,-16(fp)
      i++;
  800198:	e0bffd17 	ldw	r2,-12(fp)
  80019c:	10800044 	addi	r2,r2,1
  8001a0:	e0bffd15 	stw	r2,-12(fp)

    } while (1);
  8001a4:	003fe106 	br	80012c <__alt_mem_onchip_mem+0xff78012c>

    active = alt_irq_pending ();
  8001a8:	e0bffb15 	stw	r2,-20(fp)
    
  } while (active);
  8001ac:	e0bffb17 	ldw	r2,-20(fp)
  8001b0:	103fdb1e 	bne	r2,zero,800120 <__alt_mem_onchip_mem+0xff780120>

  /*
   * Notify the operating system that interrupt processing is complete.
   */ 

  ALT_OS_INT_EXIT();
  8001b4:	0001883a 	nop
}
  8001b8:	0001883a 	nop
  8001bc:	e037883a 	mov	sp,fp
  8001c0:	dfc00117 	ldw	ra,4(sp)
  8001c4:	df000017 	ldw	fp,0(sp)
  8001c8:	dec00204 	addi	sp,sp,8
  8001cc:	f800283a 	ret

008001d0 <alt_instruction_exception_entry>:
 * that handler if it has been registered. Absent a handler, it will
 * break break or hang as discussed below.
 */
int 
alt_instruction_exception_entry (alt_u32 exception_pc)
{
  8001d0:	defffb04 	addi	sp,sp,-20
  8001d4:	dfc00415 	stw	ra,16(sp)
  8001d8:	df000315 	stw	fp,12(sp)
  8001dc:	df000304 	addi	fp,sp,12
  8001e0:	e13fff15 	stw	r4,-4(fp)
 * NIOS2_EXCEPTION_CAUSE_NOT_PRESENT. Your handling routine should
 * check the validity of the cause argument before proceeding.
 */
#ifdef NIOS2_HAS_EXTRA_EXCEPTION_INFO
  /* Get exception cause & "badaddr" */
  NIOS2_READ_EXCEPTION(cause);
  8001e4:	000531fa 	rdctl	r2,exception
  8001e8:	e0bffd15 	stw	r2,-12(fp)
  cause = ( (cause & NIOS2_EXCEPTION_REG_CAUSE_MASK) >>
  8001ec:	e0bffd17 	ldw	r2,-12(fp)
  8001f0:	10801f0c 	andi	r2,r2,124
  8001f4:	1004d0ba 	srli	r2,r2,2
  8001f8:	e0bffd15 	stw	r2,-12(fp)
              NIOS2_EXCEPTION_REG_CAUSE_OFST );

  NIOS2_READ_BADADDR(badaddr);
  8001fc:	0005333a 	rdctl	r2,badaddr
  800200:	e0bffe15 	stw	r2,-8(fp)
#else
  cause = NIOS2_EXCEPTION_CAUSE_NOT_PRESENT;
  badaddr = 0;
#endif /* NIOS2_HAS_EXTRA_EXCEPTION_INFO */

  if(alt_instruction_exception_handler) {
  800204:	d0a78517 	ldw	r2,-25068(gp)
  800208:	10000726 	beq	r2,zero,800228 <alt_instruction_exception_entry+0x58>
     * Call handler. Its return value indicates whether the exception-causing
     * instruction should be re-issued. The code that called us,
     * alt_eceptions_entry.S, will look at this value and adjust the ea
     * register as necessary
     */
    return alt_instruction_exception_handler(cause, exception_pc, badaddr);
  80020c:	d0a78517 	ldw	r2,-25068(gp)
  800210:	e0fffd17 	ldw	r3,-12(fp)
  800214:	e1bffe17 	ldw	r6,-8(fp)
  800218:	e17fff17 	ldw	r5,-4(fp)
  80021c:	1809883a 	mov	r4,r3
  800220:	103ee83a 	callr	r2
  800224:	00000206 	br	800230 <alt_instruction_exception_entry+0x60>
   *    (a peripheral which negates its interrupt output before its
   *    interrupt handler has been executed will cause spurious interrupts)
   */
  else {
#ifdef NIOS2_HAS_DEBUG_STUB
    NIOS2_BREAK();
  800228:	003da03a 	break	0
      ;
#endif /* NIOS2_HAS_DEBUG_STUB */
  }

  /* We should not get here. Remove compiler warning. */
  return NIOS2_EXCEPTION_RETURN_REISSUE_INST;
  80022c:	0005883a 	mov	r2,zero
}
  800230:	e037883a 	mov	sp,fp
  800234:	dfc00117 	ldw	ra,4(sp)
  800238:	df000017 	ldw	fp,0(sp)
  80023c:	dec00204 	addi	sp,sp,8
  800240:	f800283a 	ret

Disassembly of section .text:

00800244 <_start>:

    /* Assume the data cache size is always a power of two. */
#if NIOS2_DCACHE_SIZE > 0x8000
    movhi r2, %hi(NIOS2_DCACHE_SIZE)
#else
    movui r2, NIOS2_DCACHE_SIZE
  800244:	00820014 	movui	r2,2048
#endif

0:
    initd 0(r2)
  800248:	10000033 	initd	0(r2)
#ifdef NIOS2_ECC_PRESENT
    addi r2, r2, -4
#else
    addi r2, r2, -NIOS2_DCACHE_LINE_SIZE
  80024c:	10bff804 	addi	r2,r2,-32
#endif
    bgt r2, zero, 0b
  800250:	00bffd16 	blt	zero,r2,800248 <__alt_mem_onchip_mem+0xff780248>

    /*
     * Now that the caches are initialized, set up the stack pointer and global pointer.
     * The values provided by the linker are assumed to be correctly aligned.
     */
    movhi sp, %hi(__alt_stack_pointer)
  800254:	06c04034 	movhi	sp,256
    ori sp, sp, %lo(__alt_stack_pointer)
  800258:	dec00014 	ori	sp,sp,0
    movhi gp, %hi(_gp)
  80025c:	06802074 	movhi	gp,129
    ori gp, gp, %lo(_gp)
  800260:	d6909f14 	ori	gp,gp,17020
 */
#ifndef ALT_SIM_OPTIMIZE
    /* Log that the BSS is about to be cleared. */
    ALT_LOG_PUTS(alt_log_msg_bss)

    movhi r2, %hi(__bss_start)
  800264:	00802034 	movhi	r2,128
    ori r2, r2, %lo(__bss_start)
  800268:	10b7c914 	ori	r2,r2,57124

    movhi r3, %hi(__bss_end)
  80026c:	00c02034 	movhi	r3,128
    ori r3, r3, %lo(__bss_end)
  800270:	18f8cf14 	ori	r3,r3,58172

    beq r2, r3, 1f
  800274:	10c00326 	beq	r2,r3,800284 <_start+0x40>

0:
    stw zero, (r2)
  800278:	10000015 	stw	zero,0(r2)
    addi r2, r2, 4
  80027c:	10800104 	addi	r2,r2,4
    bltu r2, r3, 0b
  800280:	10fffd36 	bltu	r2,r3,800278 <__alt_mem_onchip_mem+0xff780278>
     * section aren't defined until alt_load() has been called).
     */
    mov   et, zero
#endif

    call alt_load
  800284:	080657c0 	call	80657c <alt_load>

    /* Log that alt_main is about to be called. */
    ALT_LOG_PUTS(alt_log_msg_alt_main)

    /* Call the C entry point. It should never return. */
    call alt_main
  800288:	08067100 	call	806710 <alt_main>

0080028c <alt_after_alt_main>:

    /* Wait in infinite loop in case alt_main does return. */
alt_after_alt_main:
    br alt_after_alt_main
  80028c:	003fff06 	br	80028c <__alt_mem_onchip_mem+0xff78028c>

00800290 <reset>:
char g119_e1_fix_fix;
char g119_e1_fix;
char g119_e1;
char g123_e2;
int _PRE_GO;
void reset(){
  800290:	deffff04 	addi	sp,sp,-4
  800294:	df000015 	stw	fp,0(sp)
  800298:	d839883a 	mov	fp,sp
   _GO = 1;
  80029c:	00800044 	movi	r2,1
  8002a0:	d0a75485 	stb	r2,-25262(gp)
   _PRE_GO = 0;
  8002a4:	d0273215 	stw	zero,-25400(gp)
   PRE_g3 = 0;
  8002a8:	d0273305 	stb	zero,-25396(gp)
   PRE_g5 = 0;
  8002ac:	d0277145 	stb	zero,-25147(gp)
   PRE_g7 = 0;
  8002b0:	d0277585 	stb	zero,-25130(gp)
   PRE_g10 = 0;
  8002b4:	d02740c5 	stb	zero,-25341(gp)
   PRE_g18 = 0;
  8002b8:	d0275085 	stb	zero,-25278(gp)
   PRE_g20 = 0;
  8002bc:	d0273685 	stb	zero,-25382(gp)
   PRE_g22 = 0;
  8002c0:	d0275245 	stb	zero,-25271(gp)
   PRE_g27 = 0;
  8002c4:	d0272f85 	stb	zero,-25410(gp)
   PRE_g31 = 0;
  8002c8:	d0275ec5 	stb	zero,-25221(gp)
   PRE_g36 = 0;
  8002cc:	d0274ec5 	stb	zero,-25285(gp)
   PRE_g39 = 0;
  8002d0:	d02733c5 	stb	zero,-25393(gp)
   PRE_g45 = 0;
  8002d4:	d0277105 	stb	zero,-25148(gp)
   PRE_g48 = 0;
  8002d8:	d0275fc5 	stb	zero,-25217(gp)
   PRE_g54 = 0;
  8002dc:	d0275605 	stb	zero,-25256(gp)
   PRE_g56 = 0;
  8002e0:	d0273485 	stb	zero,-25390(gp)
   PRE_g58 = 0;
  8002e4:	d0276905 	stb	zero,-25180(gp)
   PRE_g61 = 0;
  8002e8:	d0276045 	stb	zero,-25215(gp)
   PRE_g69 = 0;
  8002ec:	d0273885 	stb	zero,-25374(gp)
   PRE_g71 = 0;
  8002f0:	d0274e45 	stb	zero,-25287(gp)
   PRE_g77 = 0;
  8002f4:	d0273a45 	stb	zero,-25367(gp)
   PRE_g80 = 0;
  8002f8:	d0274a45 	stb	zero,-25303(gp)
   PRE_g82 = 0;
  8002fc:	d0277045 	stb	zero,-25151(gp)
   PRE_g85 = 0;
  800300:	d0273e85 	stb	zero,-25350(gp)
   PRE_g93 = 0;
  800304:	d0276b45 	stb	zero,-25171(gp)
   PRE_g95 = 0;
  800308:	d0272bc5 	stb	zero,-25425(gp)
   PRE_g100 = 0;
  80030c:	d02767c5 	stb	zero,-25185(gp)
   PRE_g102 = 0;
  800310:	d0272d05 	stb	zero,-25420(gp)
   PRE_g104 = 0;
  800314:	d0274085 	stb	zero,-25342(gp)
   PRE_g107 = 0;
  800318:	d0275745 	stb	zero,-25251(gp)
   PRE_g113 = 0;
  80031c:	d0275b05 	stb	zero,-25236(gp)
   PRE_g115 = 0;
  800320:	d0276105 	stb	zero,-25212(gp)
   PRE_g121 = 0;
  800324:	d0273405 	stb	zero,-25392(gp)
   return;
  800328:	0001883a 	nop
}
  80032c:	e037883a 	mov	sp,fp
  800330:	df000017 	ldw	fp,0(sp)
  800334:	dec00104 	addi	sp,sp,4
  800338:	f800283a 	ret

0080033c <tick>:
void tick(){
  80033c:	deffff04 	addi	sp,sp,-4
  800340:	df000015 	stw	fp,0(sp)
  800344:	d839883a 	mov	fp,sp
   if(_PRE_GO == 1){
  800348:	d0a73217 	ldw	r2,-25400(gp)
  80034c:	10800058 	cmpnei	r2,r2,1
  800350:	1000011e 	bne	r2,zero,800358 <tick+0x1c>
      _GO = 0;
  800354:	d0275485 	stb	zero,-25262(gp)
   }
   {
      g0 = _GO;
  800358:	d0a75483 	ldbu	r2,-25262(gp)
  80035c:	d0a76745 	stb	r2,-25187(gp)
      g1 = g0;
  800360:	d0a76743 	ldbu	r2,-25187(gp)
  800364:	d0a73705 	stb	r2,-25380(gp)
      g2 = g1;
  800368:	d0a73703 	ldbu	r2,-25380(gp)
  80036c:	d0a74905 	stb	r2,-25308(gp)
      g122 =(PRE_g121);
  800370:	d0a73403 	ldbu	r2,-25392(gp)
  800374:	d0a75185 	stb	r2,-25274(gp)
      g120 = g0;
  800378:	d0a76743 	ldbu	r2,-25187(gp)
  80037c:	d0a773c5 	stb	r2,-25137(gp)
      g121 =(g122||g120);
  800380:	d0a75183 	ldbu	r2,-25274(gp)
  800384:	10803fcc 	andi	r2,r2,255
  800388:	1080201c 	xori	r2,r2,128
  80038c:	10bfe004 	addi	r2,r2,-128
  800390:	1000051e 	bne	r2,zero,8003a8 <tick+0x6c>
  800394:	d0a773c3 	ldbu	r2,-25137(gp)
  800398:	10803fcc 	andi	r2,r2,255
  80039c:	1080201c 	xori	r2,r2,128
  8003a0:	10bfe004 	addi	r2,r2,-128
  8003a4:	10000226 	beq	r2,zero,8003b0 <tick+0x74>
  8003a8:	00800044 	movi	r2,1
  8003ac:	00000106 	br	8003b4 <tick+0x78>
  8003b0:	0005883a 	mov	r2,zero
  8003b4:	d0a77185 	stb	r2,-25146(gp)
      if(g121){
  8003b8:	d0a77183 	ldbu	r2,-25146(gp)
  8003bc:	10803fcc 	andi	r2,r2,255
  8003c0:	1080201c 	xori	r2,r2,128
  8003c4:	10bfe004 	addi	r2,r2,-128
  8003c8:	10000e26 	beq	r2,zero,800404 <tick+0xc8>
         AEIStart = 0;
  8003cc:	d0276dc5 	stb	zero,-25161(gp)
         AVIStart = 0;
  8003d0:	d0275905 	stb	zero,-25244(gp)
         PVARPStart = 0;
  8003d4:	d02749c5 	stb	zero,-25305(gp)
         VRPStart = 0;
  8003d8:	d0274f05 	stb	zero,-25284(gp)
         URIStart = 0;
  8003dc:	d02779c5 	stb	zero,-25113(gp)
         LRIStart = 0;
  8003e0:	d0274145 	stb	zero,-25339(gp)
         AEIStop = 0;
  8003e4:	d02735c5 	stb	zero,-25385(gp)
         AVIStop = 0;
  8003e8:	d0273ec5 	stb	zero,-25349(gp)
         PVARPStop = 0;
  8003ec:	d0276b85 	stb	zero,-25170(gp)
         VRPStop = 0;
  8003f0:	d0275645 	stb	zero,-25255(gp)
         URIStop = 0;
  8003f4:	d02753c5 	stb	zero,-25265(gp)
         LRIStop = 0;
  8003f8:	d0276705 	stb	zero,-25188(gp)
         APace = 0;
  8003fc:	d0272b85 	stb	zero,-25426(gp)
         VPace = 0;
  800400:	d0277305 	stb	zero,-25140(gp)
      }
      g11 =(PRE_g10);
  800404:	d0a740c3 	ldbu	r2,-25341(gp)
  800408:	d0a76c05 	stb	r2,-25168(gp)
      _cg11 = VSense;
  80040c:	d0a75043 	ldbu	r2,-25279(gp)
  800410:	d0a75b85 	stb	r2,-25234(gp)
      g12 =(g11&&_cg11);
  800414:	d0a76c03 	ldbu	r2,-25168(gp)
  800418:	10803fcc 	andi	r2,r2,255
  80041c:	1080201c 	xori	r2,r2,128
  800420:	10bfe004 	addi	r2,r2,-128
  800424:	10000726 	beq	r2,zero,800444 <tick+0x108>
  800428:	d0a75b83 	ldbu	r2,-25234(gp)
  80042c:	10803fcc 	andi	r2,r2,255
  800430:	1080201c 	xori	r2,r2,128
  800434:	10bfe004 	addi	r2,r2,-128
  800438:	10000226 	beq	r2,zero,800444 <tick+0x108>
  80043c:	00800044 	movi	r2,1
  800440:	00000106 	br	800448 <tick+0x10c>
  800444:	0005883a 	mov	r2,zero
  800448:	d0a738c5 	stb	r2,-25373(gp)
      if(g12){
  80044c:	d0a738c3 	ldbu	r2,-25373(gp)
  800450:	10803fcc 	andi	r2,r2,255
  800454:	1080201c 	xori	r2,r2,128
  800458:	10bfe004 	addi	r2,r2,-128
  80045c:	10000226 	beq	r2,zero,800468 <tick+0x12c>
         AVIStop =(AVIStop||1);
  800460:	00800044 	movi	r2,1
  800464:	d0a73ec5 	stb	r2,-25349(gp)
      }
      g13 =(g11&&(!(_cg11)));
  800468:	d0a76c03 	ldbu	r2,-25168(gp)
  80046c:	10803fcc 	andi	r2,r2,255
  800470:	1080201c 	xori	r2,r2,128
  800474:	10bfe004 	addi	r2,r2,-128
  800478:	10000726 	beq	r2,zero,800498 <tick+0x15c>
  80047c:	d0a75b83 	ldbu	r2,-25234(gp)
  800480:	10803fcc 	andi	r2,r2,255
  800484:	1080201c 	xori	r2,r2,128
  800488:	10bfe004 	addi	r2,r2,-128
  80048c:	1000021e 	bne	r2,zero,800498 <tick+0x15c>
  800490:	00800044 	movi	r2,1
  800494:	00000106 	br	80049c <tick+0x160>
  800498:	0005883a 	mov	r2,zero
  80049c:	d0a760c5 	stb	r2,-25213(gp)
      _cg13 = AVIExpired;
  8004a0:	d0a74dc3 	ldbu	r2,-25289(gp)
  8004a4:	d0a766c5 	stb	r2,-25189(gp)
      g62 =(PRE_g61);
  8004a8:	d0a76043 	ldbu	r2,-25215(gp)
  8004ac:	d0a73d45 	stb	r2,-25355(gp)
      _cg62 = ASense;
  8004b0:	d0a74043 	ldbu	r2,-25343(gp)
  8004b4:	d0a77685 	stb	r2,-25126(gp)
      g63 =(g62&&_cg62);
  8004b8:	d0a73d43 	ldbu	r2,-25355(gp)
  8004bc:	10803fcc 	andi	r2,r2,255
  8004c0:	1080201c 	xori	r2,r2,128
  8004c4:	10bfe004 	addi	r2,r2,-128
  8004c8:	10000726 	beq	r2,zero,8004e8 <tick+0x1ac>
  8004cc:	d0a77683 	ldbu	r2,-25126(gp)
  8004d0:	10803fcc 	andi	r2,r2,255
  8004d4:	1080201c 	xori	r2,r2,128
  8004d8:	10bfe004 	addi	r2,r2,-128
  8004dc:	10000226 	beq	r2,zero,8004e8 <tick+0x1ac>
  8004e0:	00800044 	movi	r2,1
  8004e4:	00000106 	br	8004ec <tick+0x1b0>
  8004e8:	0005883a 	mov	r2,zero
  8004ec:	d0a75685 	stb	r2,-25254(gp)
      if(g63){
  8004f0:	d0a75683 	ldbu	r2,-25254(gp)
  8004f4:	10803fcc 	andi	r2,r2,255
  8004f8:	1080201c 	xori	r2,r2,128
  8004fc:	10bfe004 	addi	r2,r2,-128
  800500:	10000226 	beq	r2,zero,80050c <tick+0x1d0>
         AEIStop =(AEIStop||1);
  800504:	00800044 	movi	r2,1
  800508:	d0a735c5 	stb	r2,-25385(gp)
      }
      g72 =(PRE_g71);
  80050c:	d0a74e43 	ldbu	r2,-25287(gp)
  800510:	d0a763c5 	stb	r2,-25201(gp)
      g72b = g72;
  800514:	d0a763c3 	ldbu	r2,-25201(gp)
  800518:	d0a76885 	stb	r2,-25182(gp)
      _cg72 = AEIStop;
  80051c:	d0a735c3 	ldbu	r2,-25385(gp)
  800520:	d0a77905 	stb	r2,-25116(gp)
      g73 =(g72b&&(!(_cg72)));
  800524:	d0a76883 	ldbu	r2,-25182(gp)
  800528:	10803fcc 	andi	r2,r2,255
  80052c:	1080201c 	xori	r2,r2,128
  800530:	10bfe004 	addi	r2,r2,-128
  800534:	10000726 	beq	r2,zero,800554 <tick+0x218>
  800538:	d0a77903 	ldbu	r2,-25116(gp)
  80053c:	10803fcc 	andi	r2,r2,255
  800540:	1080201c 	xori	r2,r2,128
  800544:	10bfe004 	addi	r2,r2,-128
  800548:	1000021e 	bne	r2,zero,800554 <tick+0x218>
  80054c:	00800044 	movi	r2,1
  800550:	00000106 	br	800558 <tick+0x21c>
  800554:	0005883a 	mov	r2,zero
  800558:	d0a76d05 	stb	r2,-25164(gp)
      _cg73 = AEIExpired;
  80055c:	d0a76bc3 	ldbu	r2,-25169(gp)
  800560:	d0a734c5 	stb	r2,-25389(gp)
      g74 =(g73&&_cg73);
  800564:	d0a76d03 	ldbu	r2,-25164(gp)
  800568:	10803fcc 	andi	r2,r2,255
  80056c:	1080201c 	xori	r2,r2,128
  800570:	10bfe004 	addi	r2,r2,-128
  800574:	10000726 	beq	r2,zero,800594 <tick+0x258>
  800578:	d0a734c3 	ldbu	r2,-25389(gp)
  80057c:	10803fcc 	andi	r2,r2,255
  800580:	1080201c 	xori	r2,r2,128
  800584:	10bfe004 	addi	r2,r2,-128
  800588:	10000226 	beq	r2,zero,800594 <tick+0x258>
  80058c:	00800044 	movi	r2,1
  800590:	00000106 	br	800598 <tick+0x25c>
  800594:	0005883a 	mov	r2,zero
  800598:	d0a77a05 	stb	r2,-25112(gp)
      if(g74){
  80059c:	d0a77a03 	ldbu	r2,-25112(gp)
  8005a0:	10803fcc 	andi	r2,r2,255
  8005a4:	1080201c 	xori	r2,r2,128
  8005a8:	10bfe004 	addi	r2,r2,-128
  8005ac:	10000226 	beq	r2,zero,8005b8 <tick+0x27c>
         APace =(APace||1);
  8005b0:	00800044 	movi	r2,1
  8005b4:	d0a72b85 	stb	r2,-25426(gp)
      }
      g4 =(PRE_g3);
  8005b8:	d0a73303 	ldbu	r2,-25396(gp)
  8005bc:	d0a72c05 	stb	r2,-25424(gp)
      _cg4 = ASense;
  8005c0:	d0a74043 	ldbu	r2,-25343(gp)
  8005c4:	d0a77445 	stb	r2,-25135(gp)
      g15 =(g4&&(!(_cg4)));
  8005c8:	d0a72c03 	ldbu	r2,-25424(gp)
  8005cc:	10803fcc 	andi	r2,r2,255
  8005d0:	1080201c 	xori	r2,r2,128
  8005d4:	10bfe004 	addi	r2,r2,-128
  8005d8:	10000726 	beq	r2,zero,8005f8 <tick+0x2bc>
  8005dc:	d0a77443 	ldbu	r2,-25135(gp)
  8005e0:	10803fcc 	andi	r2,r2,255
  8005e4:	1080201c 	xori	r2,r2,128
  8005e8:	10bfe004 	addi	r2,r2,-128
  8005ec:	1000021e 	bne	r2,zero,8005f8 <tick+0x2bc>
  8005f0:	00800044 	movi	r2,1
  8005f4:	00000106 	br	8005fc <tick+0x2c0>
  8005f8:	0005883a 	mov	r2,zero
  8005fc:	d0a75405 	stb	r2,-25264(gp)
      _cg15 = APace;
  800600:	d0a72b83 	ldbu	r2,-25426(gp)
  800604:	d0a73445 	stb	r2,-25391(gp)
      g3 =(g12||(g13&&_cg13)||(g15&&(!(_cg15)))||g2);
  800608:	d0a738c3 	ldbu	r2,-25373(gp)
  80060c:	10803fcc 	andi	r2,r2,255
  800610:	1080201c 	xori	r2,r2,128
  800614:	10bfe004 	addi	r2,r2,-128
  800618:	1000191e 	bne	r2,zero,800680 <tick+0x344>
  80061c:	d0a760c3 	ldbu	r2,-25213(gp)
  800620:	10803fcc 	andi	r2,r2,255
  800624:	1080201c 	xori	r2,r2,128
  800628:	10bfe004 	addi	r2,r2,-128
  80062c:	10000526 	beq	r2,zero,800644 <tick+0x308>
  800630:	d0a766c3 	ldbu	r2,-25189(gp)
  800634:	10803fcc 	andi	r2,r2,255
  800638:	1080201c 	xori	r2,r2,128
  80063c:	10bfe004 	addi	r2,r2,-128
  800640:	10000f1e 	bne	r2,zero,800680 <tick+0x344>
  800644:	d0a75403 	ldbu	r2,-25264(gp)
  800648:	10803fcc 	andi	r2,r2,255
  80064c:	1080201c 	xori	r2,r2,128
  800650:	10bfe004 	addi	r2,r2,-128
  800654:	10000526 	beq	r2,zero,80066c <tick+0x330>
  800658:	d0a73443 	ldbu	r2,-25391(gp)
  80065c:	10803fcc 	andi	r2,r2,255
  800660:	1080201c 	xori	r2,r2,128
  800664:	10bfe004 	addi	r2,r2,-128
  800668:	10000526 	beq	r2,zero,800680 <tick+0x344>
  80066c:	d0a74903 	ldbu	r2,-25308(gp)
  800670:	10803fcc 	andi	r2,r2,255
  800674:	1080201c 	xori	r2,r2,128
  800678:	10bfe004 	addi	r2,r2,-128
  80067c:	10000226 	beq	r2,zero,800688 <tick+0x34c>
  800680:	00800044 	movi	r2,1
  800684:	00000106 	br	80068c <tick+0x350>
  800688:	0005883a 	mov	r2,zero
  80068c:	d0a72f05 	stb	r2,-25412(gp)
      g6 =(PRE_g5);
  800690:	d0a77143 	ldbu	r2,-25147(gp)
  800694:	d0a76345 	stb	r2,-25203(gp)
      _cg6 = PVARPExpired;
  800698:	d0a77643 	ldbu	r2,-25127(gp)
  80069c:	d0a74f45 	stb	r2,-25283(gp)
      g5 =((g4&&_cg4)||(g6&&(!(_cg6))));
  8006a0:	d0a72c03 	ldbu	r2,-25424(gp)
  8006a4:	10803fcc 	andi	r2,r2,255
  8006a8:	1080201c 	xori	r2,r2,128
  8006ac:	10bfe004 	addi	r2,r2,-128
  8006b0:	10000526 	beq	r2,zero,8006c8 <tick+0x38c>
  8006b4:	d0a77443 	ldbu	r2,-25135(gp)
  8006b8:	10803fcc 	andi	r2,r2,255
  8006bc:	1080201c 	xori	r2,r2,128
  8006c0:	10bfe004 	addi	r2,r2,-128
  8006c4:	10000a1e 	bne	r2,zero,8006f0 <tick+0x3b4>
  8006c8:	d0a76343 	ldbu	r2,-25203(gp)
  8006cc:	10803fcc 	andi	r2,r2,255
  8006d0:	1080201c 	xori	r2,r2,128
  8006d4:	10bfe004 	addi	r2,r2,-128
  8006d8:	10000726 	beq	r2,zero,8006f8 <tick+0x3bc>
  8006dc:	d0a74f43 	ldbu	r2,-25283(gp)
  8006e0:	10803fcc 	andi	r2,r2,255
  8006e4:	1080201c 	xori	r2,r2,128
  8006e8:	10bfe004 	addi	r2,r2,-128
  8006ec:	1000021e 	bne	r2,zero,8006f8 <tick+0x3bc>
  8006f0:	00800044 	movi	r2,1
  8006f4:	00000106 	br	8006fc <tick+0x3c0>
  8006f8:	0005883a 	mov	r2,zero
  8006fc:	d0a74685 	stb	r2,-25318(gp)
      g8 =(PRE_g7);
  800700:	d0a77583 	ldbu	r2,-25130(gp)
  800704:	d0a761c5 	stb	r2,-25209(gp)
      _cg8 = ASense;
  800708:	d0a74043 	ldbu	r2,-25343(gp)
  80070c:	d0a73645 	stb	r2,-25383(gp)
      g14 =(g8&&(!(_cg8)));
  800710:	d0a761c3 	ldbu	r2,-25209(gp)
  800714:	10803fcc 	andi	r2,r2,255
  800718:	1080201c 	xori	r2,r2,128
  80071c:	10bfe004 	addi	r2,r2,-128
  800720:	10000726 	beq	r2,zero,800740 <tick+0x404>
  800724:	d0a73643 	ldbu	r2,-25383(gp)
  800728:	10803fcc 	andi	r2,r2,255
  80072c:	1080201c 	xori	r2,r2,128
  800730:	10bfe004 	addi	r2,r2,-128
  800734:	1000021e 	bne	r2,zero,800740 <tick+0x404>
  800738:	00800044 	movi	r2,1
  80073c:	00000106 	br	800744 <tick+0x408>
  800740:	0005883a 	mov	r2,zero
  800744:	d0a74e85 	stb	r2,-25286(gp)
      _cg14 = APace;
  800748:	d0a72b83 	ldbu	r2,-25426(gp)
  80074c:	d0a74585 	stb	r2,-25322(gp)
      g7 =((g14&&(!(_cg14)))||(g6&&_cg6));
  800750:	d0a74e83 	ldbu	r2,-25286(gp)
  800754:	10803fcc 	andi	r2,r2,255
  800758:	1080201c 	xori	r2,r2,128
  80075c:	10bfe004 	addi	r2,r2,-128
  800760:	10000526 	beq	r2,zero,800778 <tick+0x43c>
  800764:	d0a74583 	ldbu	r2,-25322(gp)
  800768:	10803fcc 	andi	r2,r2,255
  80076c:	1080201c 	xori	r2,r2,128
  800770:	10bfe004 	addi	r2,r2,-128
  800774:	10000a26 	beq	r2,zero,8007a0 <tick+0x464>
  800778:	d0a76343 	ldbu	r2,-25203(gp)
  80077c:	10803fcc 	andi	r2,r2,255
  800780:	1080201c 	xori	r2,r2,128
  800784:	10bfe004 	addi	r2,r2,-128
  800788:	10000726 	beq	r2,zero,8007a8 <tick+0x46c>
  80078c:	d0a74f43 	ldbu	r2,-25283(gp)
  800790:	10803fcc 	andi	r2,r2,255
  800794:	1080201c 	xori	r2,r2,128
  800798:	10bfe004 	addi	r2,r2,-128
  80079c:	10000226 	beq	r2,zero,8007a8 <tick+0x46c>
  8007a0:	00800044 	movi	r2,1
  8007a4:	00000106 	br	8007ac <tick+0x470>
  8007a8:	0005883a 	mov	r2,zero
  8007ac:	d0a74945 	stb	r2,-25307(gp)
      g9 =((g8&&_cg8)||(g14&&_cg14)||(g15&&_cg15));
  8007b0:	d0a761c3 	ldbu	r2,-25209(gp)
  8007b4:	10803fcc 	andi	r2,r2,255
  8007b8:	1080201c 	xori	r2,r2,128
  8007bc:	10bfe004 	addi	r2,r2,-128
  8007c0:	10000526 	beq	r2,zero,8007d8 <tick+0x49c>
  8007c4:	d0a73643 	ldbu	r2,-25383(gp)
  8007c8:	10803fcc 	andi	r2,r2,255
  8007cc:	1080201c 	xori	r2,r2,128
  8007d0:	10bfe004 	addi	r2,r2,-128
  8007d4:	1000141e 	bne	r2,zero,800828 <tick+0x4ec>
  8007d8:	d0a74e83 	ldbu	r2,-25286(gp)
  8007dc:	10803fcc 	andi	r2,r2,255
  8007e0:	1080201c 	xori	r2,r2,128
  8007e4:	10bfe004 	addi	r2,r2,-128
  8007e8:	10000526 	beq	r2,zero,800800 <tick+0x4c4>
  8007ec:	d0a74583 	ldbu	r2,-25322(gp)
  8007f0:	10803fcc 	andi	r2,r2,255
  8007f4:	1080201c 	xori	r2,r2,128
  8007f8:	10bfe004 	addi	r2,r2,-128
  8007fc:	10000a1e 	bne	r2,zero,800828 <tick+0x4ec>
  800800:	d0a75403 	ldbu	r2,-25264(gp)
  800804:	10803fcc 	andi	r2,r2,255
  800808:	1080201c 	xori	r2,r2,128
  80080c:	10bfe004 	addi	r2,r2,-128
  800810:	10000726 	beq	r2,zero,800830 <tick+0x4f4>
  800814:	d0a73443 	ldbu	r2,-25391(gp)
  800818:	10803fcc 	andi	r2,r2,255
  80081c:	1080201c 	xori	r2,r2,128
  800820:	10bfe004 	addi	r2,r2,-128
  800824:	10000226 	beq	r2,zero,800830 <tick+0x4f4>
  800828:	00800044 	movi	r2,1
  80082c:	00000106 	br	800834 <tick+0x4f8>
  800830:	0005883a 	mov	r2,zero
  800834:	d0a73085 	stb	r2,-25406(gp)
      if(g9){
  800838:	d0a73083 	ldbu	r2,-25406(gp)
  80083c:	10803fcc 	andi	r2,r2,255
  800840:	1080201c 	xori	r2,r2,128
  800844:	10bfe004 	addi	r2,r2,-128
  800848:	10000226 	beq	r2,zero,800854 <tick+0x518>
         AVIStart =(AVIStart||1);
  80084c:	00800044 	movi	r2,1
  800850:	d0a75905 	stb	r2,-25244(gp)
      }
      g10 =(g9||(g13&&(!(_cg13))));
  800854:	d0a73083 	ldbu	r2,-25406(gp)
  800858:	10803fcc 	andi	r2,r2,255
  80085c:	1080201c 	xori	r2,r2,128
  800860:	10bfe004 	addi	r2,r2,-128
  800864:	10000a1e 	bne	r2,zero,800890 <tick+0x554>
  800868:	d0a760c3 	ldbu	r2,-25213(gp)
  80086c:	10803fcc 	andi	r2,r2,255
  800870:	1080201c 	xori	r2,r2,128
  800874:	10bfe004 	addi	r2,r2,-128
  800878:	10000726 	beq	r2,zero,800898 <tick+0x55c>
  80087c:	d0a766c3 	ldbu	r2,-25189(gp)
  800880:	10803fcc 	andi	r2,r2,255
  800884:	1080201c 	xori	r2,r2,128
  800888:	10bfe004 	addi	r2,r2,-128
  80088c:	1000021e 	bne	r2,zero,800898 <tick+0x55c>
  800890:	00800044 	movi	r2,1
  800894:	00000106 	br	80089c <tick+0x560>
  800898:	0005883a 	mov	r2,zero
  80089c:	d0a77605 	stb	r2,-25128(gp)
      g17 = g1;
  8008a0:	d0a73703 	ldbu	r2,-25380(gp)
  8008a4:	d0a73a05 	stb	r2,-25368(gp)
      g23 =(PRE_g22);
  8008a8:	d0a75243 	ldbu	r2,-25271(gp)
  8008ac:	d0a74d05 	stb	r2,-25292(gp)
      g23b = g23;
  8008b0:	d0a74d03 	ldbu	r2,-25292(gp)
  8008b4:	d0a75945 	stb	r2,-25243(gp)
      _cg23 = AVIStop;
  8008b8:	d0a73ec3 	ldbu	r2,-25349(gp)
  8008bc:	d0a77005 	stb	r2,-25152(gp)
      g28 =(PRE_g27);
  8008c0:	d0a72f83 	ldbu	r2,-25410(gp)
  8008c4:	d0a76cc5 	stb	r2,-25165(gp)
      g28b = g28;
  8008c8:	d0a76cc3 	ldbu	r2,-25165(gp)
  8008cc:	d0a751c5 	stb	r2,-25273(gp)
      _cg28 = AVIStop;
  8008d0:	d0a73ec3 	ldbu	r2,-25349(gp)
  8008d4:	d0a74485 	stb	r2,-25326(gp)
      g19 =(PRE_g18);
  8008d8:	d0a75083 	ldbu	r2,-25278(gp)
  8008dc:	d0a72c85 	stb	r2,-25422(gp)
      _cg19 = URIExpired;
  8008e0:	d0a75383 	ldbu	r2,-25266(gp)
  8008e4:	d0a76385 	stb	r2,-25202(gp)
      g26 =(g19&&(!(_cg19)));
  8008e8:	d0a72c83 	ldbu	r2,-25422(gp)
  8008ec:	10803fcc 	andi	r2,r2,255
  8008f0:	1080201c 	xori	r2,r2,128
  8008f4:	10bfe004 	addi	r2,r2,-128
  8008f8:	10000726 	beq	r2,zero,800918 <tick+0x5dc>
  8008fc:	d0a76383 	ldbu	r2,-25202(gp)
  800900:	10803fcc 	andi	r2,r2,255
  800904:	1080201c 	xori	r2,r2,128
  800908:	10bfe004 	addi	r2,r2,-128
  80090c:	1000021e 	bne	r2,zero,800918 <tick+0x5dc>
  800910:	00800044 	movi	r2,1
  800914:	00000106 	br	80091c <tick+0x5e0>
  800918:	0005883a 	mov	r2,zero
  80091c:	d0a77705 	stb	r2,-25124(gp)
      _cg26 = AVIStart;
  800920:	d0a75903 	ldbu	r2,-25244(gp)
  800924:	d0a73e05 	stb	r2,-25352(gp)
      g24 =(g23b&&(!(_cg23)));
  800928:	d0a75943 	ldbu	r2,-25243(gp)
  80092c:	10803fcc 	andi	r2,r2,255
  800930:	1080201c 	xori	r2,r2,128
  800934:	10bfe004 	addi	r2,r2,-128
  800938:	10000726 	beq	r2,zero,800958 <tick+0x61c>
  80093c:	d0a77003 	ldbu	r2,-25152(gp)
  800940:	10803fcc 	andi	r2,r2,255
  800944:	1080201c 	xori	r2,r2,128
  800948:	10bfe004 	addi	r2,r2,-128
  80094c:	1000021e 	bne	r2,zero,800958 <tick+0x61c>
  800950:	00800044 	movi	r2,1
  800954:	00000106 	br	80095c <tick+0x620>
  800958:	0005883a 	mov	r2,zero
  80095c:	d0a774c5 	stb	r2,-25133(gp)
      _cg24 = AVIExpired;
  800960:	d0a74dc3 	ldbu	r2,-25289(gp)
  800964:	d0a769c5 	stb	r2,-25177(gp)
      g25 =(g24&&_cg24);
  800968:	d0a774c3 	ldbu	r2,-25133(gp)
  80096c:	10803fcc 	andi	r2,r2,255
  800970:	1080201c 	xori	r2,r2,128
  800974:	10bfe004 	addi	r2,r2,-128
  800978:	10000726 	beq	r2,zero,800998 <tick+0x65c>
  80097c:	d0a769c3 	ldbu	r2,-25177(gp)
  800980:	10803fcc 	andi	r2,r2,255
  800984:	1080201c 	xori	r2,r2,128
  800988:	10bfe004 	addi	r2,r2,-128
  80098c:	10000226 	beq	r2,zero,800998 <tick+0x65c>
  800990:	00800044 	movi	r2,1
  800994:	00000106 	br	80099c <tick+0x660>
  800998:	0005883a 	mov	r2,zero
  80099c:	d0a76b05 	stb	r2,-25172(gp)
      if(g25){
  8009a0:	d0a76b03 	ldbu	r2,-25172(gp)
  8009a4:	10803fcc 	andi	r2,r2,255
  8009a8:	1080201c 	xori	r2,r2,128
  8009ac:	10bfe004 	addi	r2,r2,-128
  8009b0:	10000226 	beq	r2,zero,8009bc <tick+0x680>
         VPace =(VPace||1);
  8009b4:	00800044 	movi	r2,1
  8009b8:	d0a77305 	stb	r2,-25140(gp)
      }
      g32 =(PRE_g31);
  8009bc:	d0a75ec3 	ldbu	r2,-25221(gp)
  8009c0:	d0a76d85 	stb	r2,-25162(gp)
      _cg32 = URIExpired;
  8009c4:	d0a75383 	ldbu	r2,-25266(gp)
  8009c8:	d0a77545 	stb	r2,-25131(gp)
      g33 =(g32&&_cg32);
  8009cc:	d0a76d83 	ldbu	r2,-25162(gp)
  8009d0:	10803fcc 	andi	r2,r2,255
  8009d4:	1080201c 	xori	r2,r2,128
  8009d8:	10bfe004 	addi	r2,r2,-128
  8009dc:	10000726 	beq	r2,zero,8009fc <tick+0x6c0>
  8009e0:	d0a77543 	ldbu	r2,-25131(gp)
  8009e4:	10803fcc 	andi	r2,r2,255
  8009e8:	1080201c 	xori	r2,r2,128
  8009ec:	10bfe004 	addi	r2,r2,-128
  8009f0:	10000226 	beq	r2,zero,8009fc <tick+0x6c0>
  8009f4:	00800044 	movi	r2,1
  8009f8:	00000106 	br	800a00 <tick+0x6c4>
  8009fc:	0005883a 	mov	r2,zero
  800a00:	d0a75145 	stb	r2,-25275(gp)
      if(g33){
  800a04:	d0a75143 	ldbu	r2,-25275(gp)
  800a08:	10803fcc 	andi	r2,r2,255
  800a0c:	1080201c 	xori	r2,r2,128
  800a10:	10bfe004 	addi	r2,r2,-128
  800a14:	10000226 	beq	r2,zero,800a20 <tick+0x6e4>
         VPace =(VPace||1);
  800a18:	00800044 	movi	r2,1
  800a1c:	d0a77305 	stb	r2,-25140(gp)
      }
      g18 =((g23b&&_cg23)||g17||(g28b&&_cg28)||(g26&&(!(_cg26)))||g25||g33);
  800a20:	d0a75943 	ldbu	r2,-25243(gp)
  800a24:	10803fcc 	andi	r2,r2,255
  800a28:	1080201c 	xori	r2,r2,128
  800a2c:	10bfe004 	addi	r2,r2,-128
  800a30:	10000526 	beq	r2,zero,800a48 <tick+0x70c>
  800a34:	d0a77003 	ldbu	r2,-25152(gp)
  800a38:	10803fcc 	andi	r2,r2,255
  800a3c:	1080201c 	xori	r2,r2,128
  800a40:	10bfe004 	addi	r2,r2,-128
  800a44:	1000231e 	bne	r2,zero,800ad4 <tick+0x798>
  800a48:	d0a73a03 	ldbu	r2,-25368(gp)
  800a4c:	10803fcc 	andi	r2,r2,255
  800a50:	1080201c 	xori	r2,r2,128
  800a54:	10bfe004 	addi	r2,r2,-128
  800a58:	10001e1e 	bne	r2,zero,800ad4 <tick+0x798>
  800a5c:	d0a751c3 	ldbu	r2,-25273(gp)
  800a60:	10803fcc 	andi	r2,r2,255
  800a64:	1080201c 	xori	r2,r2,128
  800a68:	10bfe004 	addi	r2,r2,-128
  800a6c:	10000526 	beq	r2,zero,800a84 <tick+0x748>
  800a70:	d0a74483 	ldbu	r2,-25326(gp)
  800a74:	10803fcc 	andi	r2,r2,255
  800a78:	1080201c 	xori	r2,r2,128
  800a7c:	10bfe004 	addi	r2,r2,-128
  800a80:	1000141e 	bne	r2,zero,800ad4 <tick+0x798>
  800a84:	d0a77703 	ldbu	r2,-25124(gp)
  800a88:	10803fcc 	andi	r2,r2,255
  800a8c:	1080201c 	xori	r2,r2,128
  800a90:	10bfe004 	addi	r2,r2,-128
  800a94:	10000526 	beq	r2,zero,800aac <tick+0x770>
  800a98:	d0a73e03 	ldbu	r2,-25352(gp)
  800a9c:	10803fcc 	andi	r2,r2,255
  800aa0:	1080201c 	xori	r2,r2,128
  800aa4:	10bfe004 	addi	r2,r2,-128
  800aa8:	10000a26 	beq	r2,zero,800ad4 <tick+0x798>
  800aac:	d0a76b03 	ldbu	r2,-25172(gp)
  800ab0:	10803fcc 	andi	r2,r2,255
  800ab4:	1080201c 	xori	r2,r2,128
  800ab8:	10bfe004 	addi	r2,r2,-128
  800abc:	1000051e 	bne	r2,zero,800ad4 <tick+0x798>
  800ac0:	d0a75143 	ldbu	r2,-25275(gp)
  800ac4:	10803fcc 	andi	r2,r2,255
  800ac8:	1080201c 	xori	r2,r2,128
  800acc:	10bfe004 	addi	r2,r2,-128
  800ad0:	10000226 	beq	r2,zero,800adc <tick+0x7a0>
  800ad4:	00800044 	movi	r2,1
  800ad8:	00000106 	br	800ae0 <tick+0x7a4>
  800adc:	0005883a 	mov	r2,zero
  800ae0:	d0a74005 	stb	r2,-25344(gp)
      g21 =(PRE_g20);
  800ae4:	d0a73683 	ldbu	r2,-25382(gp)
  800ae8:	d0a74505 	stb	r2,-25324(gp)
      g21b = g21;
  800aec:	d0a74503 	ldbu	r2,-25324(gp)
  800af0:	d0a75a05 	stb	r2,-25240(gp)
      _cg21 = AVIStart;
  800af4:	d0a75903 	ldbu	r2,-25244(gp)
  800af8:	d0a742c5 	stb	r2,-25333(gp)
      g20 =((g19&&_cg19)||(g21b&&(!(_cg21))));
  800afc:	d0a72c83 	ldbu	r2,-25422(gp)
  800b00:	10803fcc 	andi	r2,r2,255
  800b04:	1080201c 	xori	r2,r2,128
  800b08:	10bfe004 	addi	r2,r2,-128
  800b0c:	10000526 	beq	r2,zero,800b24 <tick+0x7e8>
  800b10:	d0a76383 	ldbu	r2,-25202(gp)
  800b14:	10803fcc 	andi	r2,r2,255
  800b18:	1080201c 	xori	r2,r2,128
  800b1c:	10bfe004 	addi	r2,r2,-128
  800b20:	10000a1e 	bne	r2,zero,800b4c <tick+0x810>
  800b24:	d0a75a03 	ldbu	r2,-25240(gp)
  800b28:	10803fcc 	andi	r2,r2,255
  800b2c:	1080201c 	xori	r2,r2,128
  800b30:	10bfe004 	addi	r2,r2,-128
  800b34:	10000726 	beq	r2,zero,800b54 <tick+0x818>
  800b38:	d0a742c3 	ldbu	r2,-25333(gp)
  800b3c:	10803fcc 	andi	r2,r2,255
  800b40:	1080201c 	xori	r2,r2,128
  800b44:	10bfe004 	addi	r2,r2,-128
  800b48:	1000021e 	bne	r2,zero,800b54 <tick+0x818>
  800b4c:	00800044 	movi	r2,1
  800b50:	00000106 	br	800b58 <tick+0x81c>
  800b54:	0005883a 	mov	r2,zero
  800b58:	d0a756c5 	stb	r2,-25253(gp)
      g22 =((g21b&&_cg21)||(g24&&(!(_cg24))));
  800b5c:	d0a75a03 	ldbu	r2,-25240(gp)
  800b60:	10803fcc 	andi	r2,r2,255
  800b64:	1080201c 	xori	r2,r2,128
  800b68:	10bfe004 	addi	r2,r2,-128
  800b6c:	10000526 	beq	r2,zero,800b84 <tick+0x848>
  800b70:	d0a742c3 	ldbu	r2,-25333(gp)
  800b74:	10803fcc 	andi	r2,r2,255
  800b78:	1080201c 	xori	r2,r2,128
  800b7c:	10bfe004 	addi	r2,r2,-128
  800b80:	10000a1e 	bne	r2,zero,800bac <tick+0x870>
  800b84:	d0a774c3 	ldbu	r2,-25133(gp)
  800b88:	10803fcc 	andi	r2,r2,255
  800b8c:	1080201c 	xori	r2,r2,128
  800b90:	10bfe004 	addi	r2,r2,-128
  800b94:	10000726 	beq	r2,zero,800bb4 <tick+0x878>
  800b98:	d0a769c3 	ldbu	r2,-25177(gp)
  800b9c:	10803fcc 	andi	r2,r2,255
  800ba0:	1080201c 	xori	r2,r2,128
  800ba4:	10bfe004 	addi	r2,r2,-128
  800ba8:	1000021e 	bne	r2,zero,800bb4 <tick+0x878>
  800bac:	00800044 	movi	r2,1
  800bb0:	00000106 	br	800bb8 <tick+0x87c>
  800bb4:	0005883a 	mov	r2,zero
  800bb8:	d0a76c85 	stb	r2,-25166(gp)
      g29 =(g28b&&(!(_cg28)));
  800bbc:	d0a751c3 	ldbu	r2,-25273(gp)
  800bc0:	10803fcc 	andi	r2,r2,255
  800bc4:	1080201c 	xori	r2,r2,128
  800bc8:	10bfe004 	addi	r2,r2,-128
  800bcc:	10000726 	beq	r2,zero,800bec <tick+0x8b0>
  800bd0:	d0a74483 	ldbu	r2,-25326(gp)
  800bd4:	10803fcc 	andi	r2,r2,255
  800bd8:	1080201c 	xori	r2,r2,128
  800bdc:	10bfe004 	addi	r2,r2,-128
  800be0:	1000021e 	bne	r2,zero,800bec <tick+0x8b0>
  800be4:	00800044 	movi	r2,1
  800be8:	00000106 	br	800bf0 <tick+0x8b4>
  800bec:	0005883a 	mov	r2,zero
  800bf0:	d0a77405 	stb	r2,-25136(gp)
      _cg29 = AVIExpired;
  800bf4:	d0a74dc3 	ldbu	r2,-25289(gp)
  800bf8:	d0a752c5 	stb	r2,-25269(gp)
      g27 =((g26&&_cg26)||(g29&&(!(_cg29))));
  800bfc:	d0a77703 	ldbu	r2,-25124(gp)
  800c00:	10803fcc 	andi	r2,r2,255
  800c04:	1080201c 	xori	r2,r2,128
  800c08:	10bfe004 	addi	r2,r2,-128
  800c0c:	10000526 	beq	r2,zero,800c24 <tick+0x8e8>
  800c10:	d0a73e03 	ldbu	r2,-25352(gp)
  800c14:	10803fcc 	andi	r2,r2,255
  800c18:	1080201c 	xori	r2,r2,128
  800c1c:	10bfe004 	addi	r2,r2,-128
  800c20:	10000a1e 	bne	r2,zero,800c4c <tick+0x910>
  800c24:	d0a77403 	ldbu	r2,-25136(gp)
  800c28:	10803fcc 	andi	r2,r2,255
  800c2c:	1080201c 	xori	r2,r2,128
  800c30:	10bfe004 	addi	r2,r2,-128
  800c34:	10000726 	beq	r2,zero,800c54 <tick+0x918>
  800c38:	d0a752c3 	ldbu	r2,-25269(gp)
  800c3c:	10803fcc 	andi	r2,r2,255
  800c40:	1080201c 	xori	r2,r2,128
  800c44:	10bfe004 	addi	r2,r2,-128
  800c48:	1000021e 	bne	r2,zero,800c54 <tick+0x918>
  800c4c:	00800044 	movi	r2,1
  800c50:	00000106 	br	800c58 <tick+0x91c>
  800c54:	0005883a 	mov	r2,zero
  800c58:	d0a72e05 	stb	r2,-25416(gp)
      g30 =(g29&&_cg29);
  800c5c:	d0a77403 	ldbu	r2,-25136(gp)
  800c60:	10803fcc 	andi	r2,r2,255
  800c64:	1080201c 	xori	r2,r2,128
  800c68:	10bfe004 	addi	r2,r2,-128
  800c6c:	10000726 	beq	r2,zero,800c8c <tick+0x950>
  800c70:	d0a752c3 	ldbu	r2,-25269(gp)
  800c74:	10803fcc 	andi	r2,r2,255
  800c78:	1080201c 	xori	r2,r2,128
  800c7c:	10bfe004 	addi	r2,r2,-128
  800c80:	10000226 	beq	r2,zero,800c8c <tick+0x950>
  800c84:	00800044 	movi	r2,1
  800c88:	00000106 	br	800c90 <tick+0x954>
  800c8c:	0005883a 	mov	r2,zero
  800c90:	d0a76845 	stb	r2,-25183(gp)
      if(g30){
  800c94:	d0a76843 	ldbu	r2,-25183(gp)
  800c98:	10803fcc 	andi	r2,r2,255
  800c9c:	1080201c 	xori	r2,r2,128
  800ca0:	10bfe004 	addi	r2,r2,-128
  800ca4:	10000226 	beq	r2,zero,800cb0 <tick+0x974>
         VPace =(VPace||1);
  800ca8:	00800044 	movi	r2,1
  800cac:	d0a77305 	stb	r2,-25140(gp)
      }
      g31 =((g32&&(!(_cg32)))||g30);
  800cb0:	d0a76d83 	ldbu	r2,-25162(gp)
  800cb4:	10803fcc 	andi	r2,r2,255
  800cb8:	1080201c 	xori	r2,r2,128
  800cbc:	10bfe004 	addi	r2,r2,-128
  800cc0:	10000526 	beq	r2,zero,800cd8 <tick+0x99c>
  800cc4:	d0a77543 	ldbu	r2,-25131(gp)
  800cc8:	10803fcc 	andi	r2,r2,255
  800ccc:	1080201c 	xori	r2,r2,128
  800cd0:	10bfe004 	addi	r2,r2,-128
  800cd4:	10000526 	beq	r2,zero,800cec <tick+0x9b0>
  800cd8:	d0a76843 	ldbu	r2,-25183(gp)
  800cdc:	10803fcc 	andi	r2,r2,255
  800ce0:	1080201c 	xori	r2,r2,128
  800ce4:	10bfe004 	addi	r2,r2,-128
  800ce8:	10000226 	beq	r2,zero,800cf4 <tick+0x9b8>
  800cec:	00800044 	movi	r2,1
  800cf0:	00000106 	br	800cf8 <tick+0x9bc>
  800cf4:	0005883a 	mov	r2,zero
  800cf8:	d0a73c85 	stb	r2,-25358(gp)
      g35 = g1;
  800cfc:	d0a73703 	ldbu	r2,-25380(gp)
  800d00:	d0a75345 	stb	r2,-25267(gp)
      g83 =(PRE_g82);
  800d04:	d0a77043 	ldbu	r2,-25151(gp)
  800d08:	d0a72a85 	stb	r2,-25430(gp)
      _cg83 = VSense;
  800d0c:	d0a75043 	ldbu	r2,-25279(gp)
  800d10:	d0a74d45 	stb	r2,-25291(gp)
      g87 =(g83&&(!(_cg83)));
  800d14:	d0a72a83 	ldbu	r2,-25430(gp)
  800d18:	10803fcc 	andi	r2,r2,255
  800d1c:	1080201c 	xori	r2,r2,128
  800d20:	10bfe004 	addi	r2,r2,-128
  800d24:	10000726 	beq	r2,zero,800d44 <tick+0xa08>
  800d28:	d0a74d43 	ldbu	r2,-25291(gp)
  800d2c:	10803fcc 	andi	r2,r2,255
  800d30:	1080201c 	xori	r2,r2,128
  800d34:	10bfe004 	addi	r2,r2,-128
  800d38:	1000021e 	bne	r2,zero,800d44 <tick+0xa08>
  800d3c:	00800044 	movi	r2,1
  800d40:	00000106 	br	800d48 <tick+0xa0c>
  800d44:	0005883a 	mov	r2,zero
  800d48:	d0a73505 	stb	r2,-25388(gp)
      _cg87 = VPace;
  800d4c:	d0a77303 	ldbu	r2,-25140(gp)
  800d50:	d0a74d85 	stb	r2,-25290(gp)
      g89 =(g87&&(!(_cg87)));
  800d54:	d0a73503 	ldbu	r2,-25388(gp)
  800d58:	10803fcc 	andi	r2,r2,255
  800d5c:	1080201c 	xori	r2,r2,128
  800d60:	10bfe004 	addi	r2,r2,-128
  800d64:	10000726 	beq	r2,zero,800d84 <tick+0xa48>
  800d68:	d0a74d83 	ldbu	r2,-25290(gp)
  800d6c:	10803fcc 	andi	r2,r2,255
  800d70:	1080201c 	xori	r2,r2,128
  800d74:	10bfe004 	addi	r2,r2,-128
  800d78:	1000021e 	bne	r2,zero,800d84 <tick+0xa48>
  800d7c:	00800044 	movi	r2,1
  800d80:	00000106 	br	800d88 <tick+0xa4c>
  800d84:	0005883a 	mov	r2,zero
  800d88:	d0a75c45 	stb	r2,-25231(gp)
      _cg89 = LRIExpired;
  800d8c:	d0a72b03 	ldbu	r2,-25428(gp)
  800d90:	d0a76785 	stb	r2,-25186(gp)
      g90 =(g89&&_cg89);
  800d94:	d0a75c43 	ldbu	r2,-25231(gp)
  800d98:	10803fcc 	andi	r2,r2,255
  800d9c:	1080201c 	xori	r2,r2,128
  800da0:	10bfe004 	addi	r2,r2,-128
  800da4:	10000726 	beq	r2,zero,800dc4 <tick+0xa88>
  800da8:	d0a76783 	ldbu	r2,-25186(gp)
  800dac:	10803fcc 	andi	r2,r2,255
  800db0:	1080201c 	xori	r2,r2,128
  800db4:	10bfe004 	addi	r2,r2,-128
  800db8:	10000226 	beq	r2,zero,800dc4 <tick+0xa88>
  800dbc:	00800044 	movi	r2,1
  800dc0:	00000106 	br	800dc8 <tick+0xa8c>
  800dc4:	0005883a 	mov	r2,zero
  800dc8:	d0a75445 	stb	r2,-25263(gp)
      if(g90){
  800dcc:	d0a75443 	ldbu	r2,-25263(gp)
  800dd0:	10803fcc 	andi	r2,r2,255
  800dd4:	1080201c 	xori	r2,r2,128
  800dd8:	10bfe004 	addi	r2,r2,-128
  800ddc:	10000226 	beq	r2,zero,800de8 <tick+0xaac>
         VPace =(VPace||1);
  800de0:	00800044 	movi	r2,1
  800de4:	d0a77305 	stb	r2,-25140(gp)
      }
      g37 =(PRE_g36);
  800de8:	d0a74ec3 	ldbu	r2,-25285(gp)
  800dec:	d0a73cc5 	stb	r2,-25357(gp)
      _cg37 = VSense;
  800df0:	d0a75043 	ldbu	r2,-25279(gp)
  800df4:	d0a75e45 	stb	r2,-25223(gp)
      g42 =(g37&&(!(_cg37)));
  800df8:	d0a73cc3 	ldbu	r2,-25357(gp)
  800dfc:	10803fcc 	andi	r2,r2,255
  800e00:	1080201c 	xori	r2,r2,128
  800e04:	10bfe004 	addi	r2,r2,-128
  800e08:	10000726 	beq	r2,zero,800e28 <tick+0xaec>
  800e0c:	d0a75e43 	ldbu	r2,-25223(gp)
  800e10:	10803fcc 	andi	r2,r2,255
  800e14:	1080201c 	xori	r2,r2,128
  800e18:	10bfe004 	addi	r2,r2,-128
  800e1c:	1000021e 	bne	r2,zero,800e28 <tick+0xaec>
  800e20:	00800044 	movi	r2,1
  800e24:	00000106 	br	800e2c <tick+0xaf0>
  800e28:	0005883a 	mov	r2,zero
  800e2c:	d0a73045 	stb	r2,-25407(gp)
      _cg42 = VPace;
  800e30:	d0a77303 	ldbu	r2,-25140(gp)
  800e34:	d0a72a45 	stb	r2,-25431(gp)
      g40 =(PRE_g39);
  800e38:	d0a733c3 	ldbu	r2,-25393(gp)
  800e3c:	d0a72ac5 	stb	r2,-25429(gp)
      _cg40 = PVARPExpired;
  800e40:	d0a77643 	ldbu	r2,-25127(gp)
  800e44:	d0a768c5 	stb	r2,-25181(gp)
      g36 =((g42&&(!(_cg42)))||g35||(g40&&_cg40));
  800e48:	d0a73043 	ldbu	r2,-25407(gp)
  800e4c:	10803fcc 	andi	r2,r2,255
  800e50:	1080201c 	xori	r2,r2,128
  800e54:	10bfe004 	addi	r2,r2,-128
  800e58:	10000526 	beq	r2,zero,800e70 <tick+0xb34>
  800e5c:	d0a72a43 	ldbu	r2,-25431(gp)
  800e60:	10803fcc 	andi	r2,r2,255
  800e64:	1080201c 	xori	r2,r2,128
  800e68:	10bfe004 	addi	r2,r2,-128
  800e6c:	10000f26 	beq	r2,zero,800eac <tick+0xb70>
  800e70:	d0a75343 	ldbu	r2,-25267(gp)
  800e74:	10803fcc 	andi	r2,r2,255
  800e78:	1080201c 	xori	r2,r2,128
  800e7c:	10bfe004 	addi	r2,r2,-128
  800e80:	10000a1e 	bne	r2,zero,800eac <tick+0xb70>
  800e84:	d0a72ac3 	ldbu	r2,-25429(gp)
  800e88:	10803fcc 	andi	r2,r2,255
  800e8c:	1080201c 	xori	r2,r2,128
  800e90:	10bfe004 	addi	r2,r2,-128
  800e94:	10000726 	beq	r2,zero,800eb4 <tick+0xb78>
  800e98:	d0a768c3 	ldbu	r2,-25181(gp)
  800e9c:	10803fcc 	andi	r2,r2,255
  800ea0:	1080201c 	xori	r2,r2,128
  800ea4:	10bfe004 	addi	r2,r2,-128
  800ea8:	10000226 	beq	r2,zero,800eb4 <tick+0xb78>
  800eac:	00800044 	movi	r2,1
  800eb0:	00000106 	br	800eb8 <tick+0xb7c>
  800eb4:	0005883a 	mov	r2,zero
  800eb8:	d0a75c05 	stb	r2,-25232(gp)
      g38 =((g42&&_cg42)||(g37&&_cg37));
  800ebc:	d0a73043 	ldbu	r2,-25407(gp)
  800ec0:	10803fcc 	andi	r2,r2,255
  800ec4:	1080201c 	xori	r2,r2,128
  800ec8:	10bfe004 	addi	r2,r2,-128
  800ecc:	10000526 	beq	r2,zero,800ee4 <tick+0xba8>
  800ed0:	d0a72a43 	ldbu	r2,-25431(gp)
  800ed4:	10803fcc 	andi	r2,r2,255
  800ed8:	1080201c 	xori	r2,r2,128
  800edc:	10bfe004 	addi	r2,r2,-128
  800ee0:	10000a1e 	bne	r2,zero,800f0c <tick+0xbd0>
  800ee4:	d0a73cc3 	ldbu	r2,-25357(gp)
  800ee8:	10803fcc 	andi	r2,r2,255
  800eec:	1080201c 	xori	r2,r2,128
  800ef0:	10bfe004 	addi	r2,r2,-128
  800ef4:	10000726 	beq	r2,zero,800f14 <tick+0xbd8>
  800ef8:	d0a75e43 	ldbu	r2,-25223(gp)
  800efc:	10803fcc 	andi	r2,r2,255
  800f00:	1080201c 	xori	r2,r2,128
  800f04:	10bfe004 	addi	r2,r2,-128
  800f08:	10000226 	beq	r2,zero,800f14 <tick+0xbd8>
  800f0c:	00800044 	movi	r2,1
  800f10:	00000106 	br	800f18 <tick+0xbdc>
  800f14:	0005883a 	mov	r2,zero
  800f18:	d0a74205 	stb	r2,-25336(gp)
      if(g38){
  800f1c:	d0a74203 	ldbu	r2,-25336(gp)
  800f20:	10803fcc 	andi	r2,r2,255
  800f24:	1080201c 	xori	r2,r2,128
  800f28:	10bfe004 	addi	r2,r2,-128
  800f2c:	10000226 	beq	r2,zero,800f38 <tick+0xbfc>
         PVARPStart =(PVARPStart||1);
  800f30:	00800044 	movi	r2,1
  800f34:	d0a749c5 	stb	r2,-25305(gp)
      }
      g41 =(g40&&(!(_cg40)));
  800f38:	d0a72ac3 	ldbu	r2,-25429(gp)
  800f3c:	10803fcc 	andi	r2,r2,255
  800f40:	1080201c 	xori	r2,r2,128
  800f44:	10bfe004 	addi	r2,r2,-128
  800f48:	10000726 	beq	r2,zero,800f68 <tick+0xc2c>
  800f4c:	d0a768c3 	ldbu	r2,-25181(gp)
  800f50:	10803fcc 	andi	r2,r2,255
  800f54:	1080201c 	xori	r2,r2,128
  800f58:	10bfe004 	addi	r2,r2,-128
  800f5c:	1000021e 	bne	r2,zero,800f68 <tick+0xc2c>
  800f60:	00800044 	movi	r2,1
  800f64:	00000106 	br	800f6c <tick+0xc30>
  800f68:	0005883a 	mov	r2,zero
  800f6c:	d0a73dc5 	stb	r2,-25353(gp)
      _cg41 = ASense;
  800f70:	d0a74043 	ldbu	r2,-25343(gp)
  800f74:	d0a76005 	stb	r2,-25216(gp)
      g39 =((g41&&_cg41)||g38||(g41&&_cg41));
  800f78:	d0a73dc3 	ldbu	r2,-25353(gp)
  800f7c:	10803fcc 	andi	r2,r2,255
  800f80:	1080201c 	xori	r2,r2,128
  800f84:	10bfe004 	addi	r2,r2,-128
  800f88:	10000526 	beq	r2,zero,800fa0 <tick+0xc64>
  800f8c:	d0a76003 	ldbu	r2,-25216(gp)
  800f90:	10803fcc 	andi	r2,r2,255
  800f94:	1080201c 	xori	r2,r2,128
  800f98:	10bfe004 	addi	r2,r2,-128
  800f9c:	10000f1e 	bne	r2,zero,800fdc <tick+0xca0>
  800fa0:	d0a74203 	ldbu	r2,-25336(gp)
  800fa4:	10803fcc 	andi	r2,r2,255
  800fa8:	1080201c 	xori	r2,r2,128
  800fac:	10bfe004 	addi	r2,r2,-128
  800fb0:	10000a1e 	bne	r2,zero,800fdc <tick+0xca0>
  800fb4:	d0a73dc3 	ldbu	r2,-25353(gp)
  800fb8:	10803fcc 	andi	r2,r2,255
  800fbc:	1080201c 	xori	r2,r2,128
  800fc0:	10bfe004 	addi	r2,r2,-128
  800fc4:	10000726 	beq	r2,zero,800fe4 <tick+0xca8>
  800fc8:	d0a76003 	ldbu	r2,-25216(gp)
  800fcc:	10803fcc 	andi	r2,r2,255
  800fd0:	1080201c 	xori	r2,r2,128
  800fd4:	10bfe004 	addi	r2,r2,-128
  800fd8:	10000226 	beq	r2,zero,800fe4 <tick+0xca8>
  800fdc:	00800044 	movi	r2,1
  800fe0:	00000106 	br	800fe8 <tick+0xcac>
  800fe4:	0005883a 	mov	r2,zero
  800fe8:	d0a77345 	stb	r2,-25139(gp)
      g44 = g1;
  800fec:	d0a73703 	ldbu	r2,-25380(gp)
  800ff0:	d0a73545 	stb	r2,-25387(gp)
      g46 =(PRE_g45);
  800ff4:	d0a77103 	ldbu	r2,-25148(gp)
  800ff8:	d0a75c85 	stb	r2,-25230(gp)
      _cg46 = VSense;
  800ffc:	d0a75043 	ldbu	r2,-25279(gp)
  801000:	d0a73985 	stb	r2,-25370(gp)
      g51 =(g46&&(!(_cg46)));
  801004:	d0a75c83 	ldbu	r2,-25230(gp)
  801008:	10803fcc 	andi	r2,r2,255
  80100c:	1080201c 	xori	r2,r2,128
  801010:	10bfe004 	addi	r2,r2,-128
  801014:	10000726 	beq	r2,zero,801034 <tick+0xcf8>
  801018:	d0a73983 	ldbu	r2,-25370(gp)
  80101c:	10803fcc 	andi	r2,r2,255
  801020:	1080201c 	xori	r2,r2,128
  801024:	10bfe004 	addi	r2,r2,-128
  801028:	1000021e 	bne	r2,zero,801034 <tick+0xcf8>
  80102c:	00800044 	movi	r2,1
  801030:	00000106 	br	801038 <tick+0xcfc>
  801034:	0005883a 	mov	r2,zero
  801038:	d0a75dc5 	stb	r2,-25225(gp)
      _cg51 = VPace;
  80103c:	d0a77303 	ldbu	r2,-25140(gp)
  801040:	d0a74545 	stb	r2,-25323(gp)
      g49 =(PRE_g48);
  801044:	d0a75fc3 	ldbu	r2,-25217(gp)
  801048:	d0a74745 	stb	r2,-25315(gp)
      _cg49 = VRPExpired;
  80104c:	d0a73583 	ldbu	r2,-25386(gp)
  801050:	d0a77385 	stb	r2,-25138(gp)
      g45 =((g51&&(!(_cg51)))||(g49&&_cg49)||g44);
  801054:	d0a75dc3 	ldbu	r2,-25225(gp)
  801058:	10803fcc 	andi	r2,r2,255
  80105c:	1080201c 	xori	r2,r2,128
  801060:	10bfe004 	addi	r2,r2,-128
  801064:	10000526 	beq	r2,zero,80107c <tick+0xd40>
  801068:	d0a74543 	ldbu	r2,-25323(gp)
  80106c:	10803fcc 	andi	r2,r2,255
  801070:	1080201c 	xori	r2,r2,128
  801074:	10bfe004 	addi	r2,r2,-128
  801078:	10000f26 	beq	r2,zero,8010b8 <tick+0xd7c>
  80107c:	d0a74743 	ldbu	r2,-25315(gp)
  801080:	10803fcc 	andi	r2,r2,255
  801084:	1080201c 	xori	r2,r2,128
  801088:	10bfe004 	addi	r2,r2,-128
  80108c:	10000526 	beq	r2,zero,8010a4 <tick+0xd68>
  801090:	d0a77383 	ldbu	r2,-25138(gp)
  801094:	10803fcc 	andi	r2,r2,255
  801098:	1080201c 	xori	r2,r2,128
  80109c:	10bfe004 	addi	r2,r2,-128
  8010a0:	1000051e 	bne	r2,zero,8010b8 <tick+0xd7c>
  8010a4:	d0a73543 	ldbu	r2,-25387(gp)
  8010a8:	10803fcc 	andi	r2,r2,255
  8010ac:	1080201c 	xori	r2,r2,128
  8010b0:	10bfe004 	addi	r2,r2,-128
  8010b4:	10000226 	beq	r2,zero,8010c0 <tick+0xd84>
  8010b8:	00800044 	movi	r2,1
  8010bc:	00000106 	br	8010c4 <tick+0xd88>
  8010c0:	0005883a 	mov	r2,zero
  8010c4:	d0a76e45 	stb	r2,-25159(gp)
      g47 =((g51&&_cg51)||(g46&&_cg46));
  8010c8:	d0a75dc3 	ldbu	r2,-25225(gp)
  8010cc:	10803fcc 	andi	r2,r2,255
  8010d0:	1080201c 	xori	r2,r2,128
  8010d4:	10bfe004 	addi	r2,r2,-128
  8010d8:	10000526 	beq	r2,zero,8010f0 <tick+0xdb4>
  8010dc:	d0a74543 	ldbu	r2,-25323(gp)
  8010e0:	10803fcc 	andi	r2,r2,255
  8010e4:	1080201c 	xori	r2,r2,128
  8010e8:	10bfe004 	addi	r2,r2,-128
  8010ec:	10000a1e 	bne	r2,zero,801118 <tick+0xddc>
  8010f0:	d0a75c83 	ldbu	r2,-25230(gp)
  8010f4:	10803fcc 	andi	r2,r2,255
  8010f8:	1080201c 	xori	r2,r2,128
  8010fc:	10bfe004 	addi	r2,r2,-128
  801100:	10000726 	beq	r2,zero,801120 <tick+0xde4>
  801104:	d0a73983 	ldbu	r2,-25370(gp)
  801108:	10803fcc 	andi	r2,r2,255
  80110c:	1080201c 	xori	r2,r2,128
  801110:	10bfe004 	addi	r2,r2,-128
  801114:	10000226 	beq	r2,zero,801120 <tick+0xde4>
  801118:	00800044 	movi	r2,1
  80111c:	00000106 	br	801124 <tick+0xde8>
  801120:	0005883a 	mov	r2,zero
  801124:	d0a72fc5 	stb	r2,-25409(gp)
      if(g47){
  801128:	d0a72fc3 	ldbu	r2,-25409(gp)
  80112c:	10803fcc 	andi	r2,r2,255
  801130:	1080201c 	xori	r2,r2,128
  801134:	10bfe004 	addi	r2,r2,-128
  801138:	10000226 	beq	r2,zero,801144 <tick+0xe08>
         VRPStart =(VRPStart||1);
  80113c:	00800044 	movi	r2,1
  801140:	d0a74f05 	stb	r2,-25284(gp)
      }
      g50 =(g49&&(!(_cg49)));
  801144:	d0a74743 	ldbu	r2,-25315(gp)
  801148:	10803fcc 	andi	r2,r2,255
  80114c:	1080201c 	xori	r2,r2,128
  801150:	10bfe004 	addi	r2,r2,-128
  801154:	10000726 	beq	r2,zero,801174 <tick+0xe38>
  801158:	d0a77383 	ldbu	r2,-25138(gp)
  80115c:	10803fcc 	andi	r2,r2,255
  801160:	1080201c 	xori	r2,r2,128
  801164:	10bfe004 	addi	r2,r2,-128
  801168:	1000021e 	bne	r2,zero,801174 <tick+0xe38>
  80116c:	00800044 	movi	r2,1
  801170:	00000106 	br	801178 <tick+0xe3c>
  801174:	0005883a 	mov	r2,zero
  801178:	d0a75d05 	stb	r2,-25228(gp)
      _cg50 = VSense;
  80117c:	d0a75043 	ldbu	r2,-25279(gp)
  801180:	d0a76685 	stb	r2,-25190(gp)
      g48 =((g50&&_cg50)||(g50&&_cg50)||g47);
  801184:	d0a75d03 	ldbu	r2,-25228(gp)
  801188:	10803fcc 	andi	r2,r2,255
  80118c:	1080201c 	xori	r2,r2,128
  801190:	10bfe004 	addi	r2,r2,-128
  801194:	10000526 	beq	r2,zero,8011ac <tick+0xe70>
  801198:	d0a76683 	ldbu	r2,-25190(gp)
  80119c:	10803fcc 	andi	r2,r2,255
  8011a0:	1080201c 	xori	r2,r2,128
  8011a4:	10bfe004 	addi	r2,r2,-128
  8011a8:	10000f1e 	bne	r2,zero,8011e8 <tick+0xeac>
  8011ac:	d0a75d03 	ldbu	r2,-25228(gp)
  8011b0:	10803fcc 	andi	r2,r2,255
  8011b4:	1080201c 	xori	r2,r2,128
  8011b8:	10bfe004 	addi	r2,r2,-128
  8011bc:	10000526 	beq	r2,zero,8011d4 <tick+0xe98>
  8011c0:	d0a76683 	ldbu	r2,-25190(gp)
  8011c4:	10803fcc 	andi	r2,r2,255
  8011c8:	1080201c 	xori	r2,r2,128
  8011cc:	10bfe004 	addi	r2,r2,-128
  8011d0:	1000051e 	bne	r2,zero,8011e8 <tick+0xeac>
  8011d4:	d0a72fc3 	ldbu	r2,-25409(gp)
  8011d8:	10803fcc 	andi	r2,r2,255
  8011dc:	1080201c 	xori	r2,r2,128
  8011e0:	10bfe004 	addi	r2,r2,-128
  8011e4:	10000226 	beq	r2,zero,8011f0 <tick+0xeb4>
  8011e8:	00800044 	movi	r2,1
  8011ec:	00000106 	br	8011f4 <tick+0xeb8>
  8011f0:	0005883a 	mov	r2,zero
  8011f4:	d0a741c5 	stb	r2,-25337(gp)
      g53 = g1;
  8011f8:	d0a73703 	ldbu	r2,-25380(gp)
  8011fc:	d0a76185 	stb	r2,-25210(gp)
      g64 =(g62&&(!(_cg62)));
  801200:	d0a73d43 	ldbu	r2,-25355(gp)
  801204:	10803fcc 	andi	r2,r2,255
  801208:	1080201c 	xori	r2,r2,128
  80120c:	10bfe004 	addi	r2,r2,-128
  801210:	10000726 	beq	r2,zero,801230 <tick+0xef4>
  801214:	d0a77683 	ldbu	r2,-25126(gp)
  801218:	10803fcc 	andi	r2,r2,255
  80121c:	1080201c 	xori	r2,r2,128
  801220:	10bfe004 	addi	r2,r2,-128
  801224:	1000021e 	bne	r2,zero,801230 <tick+0xef4>
  801228:	00800044 	movi	r2,1
  80122c:	00000106 	br	801234 <tick+0xef8>
  801230:	0005883a 	mov	r2,zero
  801234:	d0a744c5 	stb	r2,-25325(gp)
      _cg64 = AEIExpired;
  801238:	d0a76bc3 	ldbu	r2,-25169(gp)
  80123c:	d0a75285 	stb	r2,-25270(gp)
      g55 =(PRE_g54);
  801240:	d0a75603 	ldbu	r2,-25256(gp)
  801244:	d0a72d45 	stb	r2,-25419(gp)
      _cg55 = VSense;
  801248:	d0a75043 	ldbu	r2,-25279(gp)
  80124c:	d0a770c5 	stb	r2,-25149(gp)
      g66 =(g55&&(!(_cg55)));
  801250:	d0a72d43 	ldbu	r2,-25419(gp)
  801254:	10803fcc 	andi	r2,r2,255
  801258:	1080201c 	xori	r2,r2,128
  80125c:	10bfe004 	addi	r2,r2,-128
  801260:	10000726 	beq	r2,zero,801280 <tick+0xf44>
  801264:	d0a770c3 	ldbu	r2,-25149(gp)
  801268:	10803fcc 	andi	r2,r2,255
  80126c:	1080201c 	xori	r2,r2,128
  801270:	10bfe004 	addi	r2,r2,-128
  801274:	1000021e 	bne	r2,zero,801280 <tick+0xf44>
  801278:	00800044 	movi	r2,1
  80127c:	00000106 	br	801284 <tick+0xf48>
  801280:	0005883a 	mov	r2,zero
  801284:	d0a74cc5 	stb	r2,-25293(gp)
      _cg66 = VPace;
  801288:	d0a77303 	ldbu	r2,-25140(gp)
  80128c:	d0a76285 	stb	r2,-25206(gp)
      g54 =(g53||g63||(g64&&_cg64)||(g66&&(!(_cg66))));
  801290:	d0a76183 	ldbu	r2,-25210(gp)
  801294:	10803fcc 	andi	r2,r2,255
  801298:	1080201c 	xori	r2,r2,128
  80129c:	10bfe004 	addi	r2,r2,-128
  8012a0:	1000191e 	bne	r2,zero,801308 <tick+0xfcc>
  8012a4:	d0a75683 	ldbu	r2,-25254(gp)
  8012a8:	10803fcc 	andi	r2,r2,255
  8012ac:	1080201c 	xori	r2,r2,128
  8012b0:	10bfe004 	addi	r2,r2,-128
  8012b4:	1000141e 	bne	r2,zero,801308 <tick+0xfcc>
  8012b8:	d0a744c3 	ldbu	r2,-25325(gp)
  8012bc:	10803fcc 	andi	r2,r2,255
  8012c0:	1080201c 	xori	r2,r2,128
  8012c4:	10bfe004 	addi	r2,r2,-128
  8012c8:	10000526 	beq	r2,zero,8012e0 <tick+0xfa4>
  8012cc:	d0a75283 	ldbu	r2,-25270(gp)
  8012d0:	10803fcc 	andi	r2,r2,255
  8012d4:	1080201c 	xori	r2,r2,128
  8012d8:	10bfe004 	addi	r2,r2,-128
  8012dc:	10000a1e 	bne	r2,zero,801308 <tick+0xfcc>
  8012e0:	d0a74cc3 	ldbu	r2,-25293(gp)
  8012e4:	10803fcc 	andi	r2,r2,255
  8012e8:	1080201c 	xori	r2,r2,128
  8012ec:	10bfe004 	addi	r2,r2,-128
  8012f0:	10000726 	beq	r2,zero,801310 <tick+0xfd4>
  8012f4:	d0a76283 	ldbu	r2,-25206(gp)
  8012f8:	10803fcc 	andi	r2,r2,255
  8012fc:	1080201c 	xori	r2,r2,128
  801300:	10bfe004 	addi	r2,r2,-128
  801304:	1000021e 	bne	r2,zero,801310 <tick+0xfd4>
  801308:	00800044 	movi	r2,1
  80130c:	00000106 	br	801314 <tick+0xfd8>
  801310:	0005883a 	mov	r2,zero
  801314:	d0a74c85 	stb	r2,-25294(gp)
      g57 =(PRE_g56);
  801318:	d0a73483 	ldbu	r2,-25390(gp)
  80131c:	d0a76205 	stb	r2,-25208(gp)
      _cg57 = VRPExpired;
  801320:	d0a73583 	ldbu	r2,-25386(gp)
  801324:	d0a76a85 	stb	r2,-25174(gp)
      g56 =((g55&&_cg55)||(g57&&(!(_cg57))));
  801328:	d0a72d43 	ldbu	r2,-25419(gp)
  80132c:	10803fcc 	andi	r2,r2,255
  801330:	1080201c 	xori	r2,r2,128
  801334:	10bfe004 	addi	r2,r2,-128
  801338:	10000526 	beq	r2,zero,801350 <tick+0x1014>
  80133c:	d0a770c3 	ldbu	r2,-25149(gp)
  801340:	10803fcc 	andi	r2,r2,255
  801344:	1080201c 	xori	r2,r2,128
  801348:	10bfe004 	addi	r2,r2,-128
  80134c:	10000a1e 	bne	r2,zero,801378 <tick+0x103c>
  801350:	d0a76203 	ldbu	r2,-25208(gp)
  801354:	10803fcc 	andi	r2,r2,255
  801358:	1080201c 	xori	r2,r2,128
  80135c:	10bfe004 	addi	r2,r2,-128
  801360:	10000726 	beq	r2,zero,801380 <tick+0x1044>
  801364:	d0a76a83 	ldbu	r2,-25174(gp)
  801368:	10803fcc 	andi	r2,r2,255
  80136c:	1080201c 	xori	r2,r2,128
  801370:	10bfe004 	addi	r2,r2,-128
  801374:	1000021e 	bne	r2,zero,801380 <tick+0x1044>
  801378:	00800044 	movi	r2,1
  80137c:	00000106 	br	801384 <tick+0x1048>
  801380:	0005883a 	mov	r2,zero
  801384:	d0a75005 	stb	r2,-25280(gp)
      g59 =(PRE_g58);
  801388:	d0a76903 	ldbu	r2,-25180(gp)
  80138c:	d0a74c05 	stb	r2,-25296(gp)
      _cg59 = VSense;
  801390:	d0a75043 	ldbu	r2,-25279(gp)
  801394:	d0a72dc5 	stb	r2,-25417(gp)
      g65 =(g59&&(!(_cg59)));
  801398:	d0a74c03 	ldbu	r2,-25296(gp)
  80139c:	10803fcc 	andi	r2,r2,255
  8013a0:	1080201c 	xori	r2,r2,128
  8013a4:	10bfe004 	addi	r2,r2,-128
  8013a8:	10000726 	beq	r2,zero,8013c8 <tick+0x108c>
  8013ac:	d0a72dc3 	ldbu	r2,-25417(gp)
  8013b0:	10803fcc 	andi	r2,r2,255
  8013b4:	1080201c 	xori	r2,r2,128
  8013b8:	10bfe004 	addi	r2,r2,-128
  8013bc:	1000021e 	bne	r2,zero,8013c8 <tick+0x108c>
  8013c0:	00800044 	movi	r2,1
  8013c4:	00000106 	br	8013cc <tick+0x1090>
  8013c8:	0005883a 	mov	r2,zero
  8013cc:	d0a76c45 	stb	r2,-25167(gp)
      _cg65 = VPace;
  8013d0:	d0a77303 	ldbu	r2,-25140(gp)
  8013d4:	d0a75ac5 	stb	r2,-25237(gp)
      g58 =((g65&&(!(_cg65)))||(g57&&_cg57));
  8013d8:	d0a76c43 	ldbu	r2,-25167(gp)
  8013dc:	10803fcc 	andi	r2,r2,255
  8013e0:	1080201c 	xori	r2,r2,128
  8013e4:	10bfe004 	addi	r2,r2,-128
  8013e8:	10000526 	beq	r2,zero,801400 <tick+0x10c4>
  8013ec:	d0a75ac3 	ldbu	r2,-25237(gp)
  8013f0:	10803fcc 	andi	r2,r2,255
  8013f4:	1080201c 	xori	r2,r2,128
  8013f8:	10bfe004 	addi	r2,r2,-128
  8013fc:	10000a26 	beq	r2,zero,801428 <tick+0x10ec>
  801400:	d0a76203 	ldbu	r2,-25208(gp)
  801404:	10803fcc 	andi	r2,r2,255
  801408:	1080201c 	xori	r2,r2,128
  80140c:	10bfe004 	addi	r2,r2,-128
  801410:	10000726 	beq	r2,zero,801430 <tick+0x10f4>
  801414:	d0a76a83 	ldbu	r2,-25174(gp)
  801418:	10803fcc 	andi	r2,r2,255
  80141c:	1080201c 	xori	r2,r2,128
  801420:	10bfe004 	addi	r2,r2,-128
  801424:	10000226 	beq	r2,zero,801430 <tick+0x10f4>
  801428:	00800044 	movi	r2,1
  80142c:	00000106 	br	801434 <tick+0x10f8>
  801430:	0005883a 	mov	r2,zero
  801434:	d0a76a05 	stb	r2,-25176(gp)
      g60 =((g65&&_cg65)||(g59&&_cg59)||(g66&&_cg66));
  801438:	d0a76c43 	ldbu	r2,-25167(gp)
  80143c:	10803fcc 	andi	r2,r2,255
  801440:	1080201c 	xori	r2,r2,128
  801444:	10bfe004 	addi	r2,r2,-128
  801448:	10000526 	beq	r2,zero,801460 <tick+0x1124>
  80144c:	d0a75ac3 	ldbu	r2,-25237(gp)
  801450:	10803fcc 	andi	r2,r2,255
  801454:	1080201c 	xori	r2,r2,128
  801458:	10bfe004 	addi	r2,r2,-128
  80145c:	1000141e 	bne	r2,zero,8014b0 <tick+0x1174>
  801460:	d0a74c03 	ldbu	r2,-25296(gp)
  801464:	10803fcc 	andi	r2,r2,255
  801468:	1080201c 	xori	r2,r2,128
  80146c:	10bfe004 	addi	r2,r2,-128
  801470:	10000526 	beq	r2,zero,801488 <tick+0x114c>
  801474:	d0a72dc3 	ldbu	r2,-25417(gp)
  801478:	10803fcc 	andi	r2,r2,255
  80147c:	1080201c 	xori	r2,r2,128
  801480:	10bfe004 	addi	r2,r2,-128
  801484:	10000a1e 	bne	r2,zero,8014b0 <tick+0x1174>
  801488:	d0a74cc3 	ldbu	r2,-25293(gp)
  80148c:	10803fcc 	andi	r2,r2,255
  801490:	1080201c 	xori	r2,r2,128
  801494:	10bfe004 	addi	r2,r2,-128
  801498:	10000726 	beq	r2,zero,8014b8 <tick+0x117c>
  80149c:	d0a76283 	ldbu	r2,-25206(gp)
  8014a0:	10803fcc 	andi	r2,r2,255
  8014a4:	1080201c 	xori	r2,r2,128
  8014a8:	10bfe004 	addi	r2,r2,-128
  8014ac:	10000226 	beq	r2,zero,8014b8 <tick+0x117c>
  8014b0:	00800044 	movi	r2,1
  8014b4:	00000106 	br	8014bc <tick+0x1180>
  8014b8:	0005883a 	mov	r2,zero
  8014bc:	d0a75705 	stb	r2,-25252(gp)
      if(g60){
  8014c0:	d0a75703 	ldbu	r2,-25252(gp)
  8014c4:	10803fcc 	andi	r2,r2,255
  8014c8:	1080201c 	xori	r2,r2,128
  8014cc:	10bfe004 	addi	r2,r2,-128
  8014d0:	10000226 	beq	r2,zero,8014dc <tick+0x11a0>
         AEIStart =(AEIStart||1);
  8014d4:	00800044 	movi	r2,1
  8014d8:	d0a76dc5 	stb	r2,-25161(gp)
      }
      g61 =(g60||(g64&&(!(_cg64))));
  8014dc:	d0a75703 	ldbu	r2,-25252(gp)
  8014e0:	10803fcc 	andi	r2,r2,255
  8014e4:	1080201c 	xori	r2,r2,128
  8014e8:	10bfe004 	addi	r2,r2,-128
  8014ec:	10000a1e 	bne	r2,zero,801518 <tick+0x11dc>
  8014f0:	d0a744c3 	ldbu	r2,-25325(gp)
  8014f4:	10803fcc 	andi	r2,r2,255
  8014f8:	1080201c 	xori	r2,r2,128
  8014fc:	10bfe004 	addi	r2,r2,-128
  801500:	10000726 	beq	r2,zero,801520 <tick+0x11e4>
  801504:	d0a75283 	ldbu	r2,-25270(gp)
  801508:	10803fcc 	andi	r2,r2,255
  80150c:	1080201c 	xori	r2,r2,128
  801510:	10bfe004 	addi	r2,r2,-128
  801514:	1000021e 	bne	r2,zero,801520 <tick+0x11e4>
  801518:	00800044 	movi	r2,1
  80151c:	00000106 	br	801524 <tick+0x11e8>
  801520:	0005883a 	mov	r2,zero
  801524:	d0a73745 	stb	r2,-25379(gp)
      g68 = g1;
  801528:	d0a73703 	ldbu	r2,-25380(gp)
  80152c:	d0a76ac5 	stb	r2,-25173(gp)
      g70 =(PRE_g69);
  801530:	d0a73883 	ldbu	r2,-25374(gp)
  801534:	d0a76245 	stb	r2,-25207(gp)
      g70b = g70;
  801538:	d0a76243 	ldbu	r2,-25207(gp)
  80153c:	d0a76985 	stb	r2,-25178(gp)
      _cg70 = AEIStart;
  801540:	d0a76dc3 	ldbu	r2,-25161(gp)
  801544:	d0a75e05 	stb	r2,-25224(gp)
      g69 =((g70b&&(!(_cg70)))||(g72b&&_cg72)||g68||g74);
  801548:	d0a76983 	ldbu	r2,-25178(gp)
  80154c:	10803fcc 	andi	r2,r2,255
  801550:	1080201c 	xori	r2,r2,128
  801554:	10bfe004 	addi	r2,r2,-128
  801558:	10000526 	beq	r2,zero,801570 <tick+0x1234>
  80155c:	d0a75e03 	ldbu	r2,-25224(gp)
  801560:	10803fcc 	andi	r2,r2,255
  801564:	1080201c 	xori	r2,r2,128
  801568:	10bfe004 	addi	r2,r2,-128
  80156c:	10001426 	beq	r2,zero,8015c0 <tick+0x1284>
  801570:	d0a76883 	ldbu	r2,-25182(gp)
  801574:	10803fcc 	andi	r2,r2,255
  801578:	1080201c 	xori	r2,r2,128
  80157c:	10bfe004 	addi	r2,r2,-128
  801580:	10000526 	beq	r2,zero,801598 <tick+0x125c>
  801584:	d0a77903 	ldbu	r2,-25116(gp)
  801588:	10803fcc 	andi	r2,r2,255
  80158c:	1080201c 	xori	r2,r2,128
  801590:	10bfe004 	addi	r2,r2,-128
  801594:	10000a1e 	bne	r2,zero,8015c0 <tick+0x1284>
  801598:	d0a76ac3 	ldbu	r2,-25173(gp)
  80159c:	10803fcc 	andi	r2,r2,255
  8015a0:	1080201c 	xori	r2,r2,128
  8015a4:	10bfe004 	addi	r2,r2,-128
  8015a8:	1000051e 	bne	r2,zero,8015c0 <tick+0x1284>
  8015ac:	d0a77a03 	ldbu	r2,-25112(gp)
  8015b0:	10803fcc 	andi	r2,r2,255
  8015b4:	1080201c 	xori	r2,r2,128
  8015b8:	10bfe004 	addi	r2,r2,-128
  8015bc:	10000226 	beq	r2,zero,8015c8 <tick+0x128c>
  8015c0:	00800044 	movi	r2,1
  8015c4:	00000106 	br	8015cc <tick+0x1290>
  8015c8:	0005883a 	mov	r2,zero
  8015cc:	d0a776c5 	stb	r2,-25125(gp)
      g71 =((g70b&&_cg70)||(g73&&(!(_cg73))));
  8015d0:	d0a76983 	ldbu	r2,-25178(gp)
  8015d4:	10803fcc 	andi	r2,r2,255
  8015d8:	1080201c 	xori	r2,r2,128
  8015dc:	10bfe004 	addi	r2,r2,-128
  8015e0:	10000526 	beq	r2,zero,8015f8 <tick+0x12bc>
  8015e4:	d0a75e03 	ldbu	r2,-25224(gp)
  8015e8:	10803fcc 	andi	r2,r2,255
  8015ec:	1080201c 	xori	r2,r2,128
  8015f0:	10bfe004 	addi	r2,r2,-128
  8015f4:	10000a1e 	bne	r2,zero,801620 <tick+0x12e4>
  8015f8:	d0a76d03 	ldbu	r2,-25164(gp)
  8015fc:	10803fcc 	andi	r2,r2,255
  801600:	1080201c 	xori	r2,r2,128
  801604:	10bfe004 	addi	r2,r2,-128
  801608:	10000726 	beq	r2,zero,801628 <tick+0x12ec>
  80160c:	d0a734c3 	ldbu	r2,-25389(gp)
  801610:	10803fcc 	andi	r2,r2,255
  801614:	1080201c 	xori	r2,r2,128
  801618:	10bfe004 	addi	r2,r2,-128
  80161c:	1000021e 	bne	r2,zero,801628 <tick+0x12ec>
  801620:	00800044 	movi	r2,1
  801624:	00000106 	br	80162c <tick+0x12f0>
  801628:	0005883a 	mov	r2,zero
  80162c:	d0a73785 	stb	r2,-25378(gp)
      g76 = g1;
  801630:	d0a73703 	ldbu	r2,-25380(gp)
  801634:	d0a73c45 	stb	r2,-25359(gp)
      g78 =(PRE_g77);
  801638:	d0a73a43 	ldbu	r2,-25367(gp)
  80163c:	d0a75105 	stb	r2,-25276(gp)
      _cg78 = VSense;
  801640:	d0a75043 	ldbu	r2,-25279(gp)
  801644:	d0a75f85 	stb	r2,-25218(gp)
      g77 =(g76||(g78&&(!(_cg78))));
  801648:	d0a73c43 	ldbu	r2,-25359(gp)
  80164c:	10803fcc 	andi	r2,r2,255
  801650:	1080201c 	xori	r2,r2,128
  801654:	10bfe004 	addi	r2,r2,-128
  801658:	10000a1e 	bne	r2,zero,801684 <tick+0x1348>
  80165c:	d0a75103 	ldbu	r2,-25276(gp)
  801660:	10803fcc 	andi	r2,r2,255
  801664:	1080201c 	xori	r2,r2,128
  801668:	10bfe004 	addi	r2,r2,-128
  80166c:	10000726 	beq	r2,zero,80168c <tick+0x1350>
  801670:	d0a75f83 	ldbu	r2,-25218(gp)
  801674:	10803fcc 	andi	r2,r2,255
  801678:	1080201c 	xori	r2,r2,128
  80167c:	10bfe004 	addi	r2,r2,-128
  801680:	1000021e 	bne	r2,zero,80168c <tick+0x1350>
  801684:	00800044 	movi	r2,1
  801688:	00000106 	br	801690 <tick+0x1354>
  80168c:	0005883a 	mov	r2,zero
  801690:	d0a76d45 	stb	r2,-25163(gp)
      g79 =(g78&&_cg78);
  801694:	d0a75103 	ldbu	r2,-25276(gp)
  801698:	10803fcc 	andi	r2,r2,255
  80169c:	1080201c 	xori	r2,r2,128
  8016a0:	10bfe004 	addi	r2,r2,-128
  8016a4:	10000726 	beq	r2,zero,8016c4 <tick+0x1388>
  8016a8:	d0a75f83 	ldbu	r2,-25218(gp)
  8016ac:	10803fcc 	andi	r2,r2,255
  8016b0:	1080201c 	xori	r2,r2,128
  8016b4:	10bfe004 	addi	r2,r2,-128
  8016b8:	10000226 	beq	r2,zero,8016c4 <tick+0x1388>
  8016bc:	00800044 	movi	r2,1
  8016c0:	00000106 	br	8016c8 <tick+0x138c>
  8016c4:	0005883a 	mov	r2,zero
  8016c8:	d0a745c5 	stb	r2,-25321(gp)
      if(g79){
  8016cc:	d0a745c3 	ldbu	r2,-25321(gp)
  8016d0:	10803fcc 	andi	r2,r2,255
  8016d4:	1080201c 	xori	r2,r2,128
  8016d8:	10bfe004 	addi	r2,r2,-128
  8016dc:	10000226 	beq	r2,zero,8016e8 <tick+0x13ac>
         LRIStart =(LRIStart||1);
  8016e0:	00800044 	movi	r2,1
  8016e4:	d0a74145 	stb	r2,-25339(gp)
      }
      g81 =(PRE_g80);
  8016e8:	d0a74a43 	ldbu	r2,-25303(gp)
  8016ec:	d0a76405 	stb	r2,-25200(gp)
      _cg81 = VRPExpired;
  8016f0:	d0a73583 	ldbu	r2,-25386(gp)
  8016f4:	d0a72a05 	stb	r2,-25432(gp)
      g86 =(PRE_g85);
  8016f8:	d0a73e83 	ldbu	r2,-25350(gp)
  8016fc:	d0a75a45 	stb	r2,-25239(gp)
      g86b = g86;
  801700:	d0a75a43 	ldbu	r2,-25239(gp)
  801704:	d0a75b45 	stb	r2,-25235(gp)
      if(g86b){
  801708:	d0a75b43 	ldbu	r2,-25235(gp)
  80170c:	10803fcc 	andi	r2,r2,255
  801710:	1080201c 	xori	r2,r2,128
  801714:	10bfe004 	addi	r2,r2,-128
  801718:	10000226 	beq	r2,zero,801724 <tick+0x13e8>
         LRIStart =(LRIStart||1);
  80171c:	00800044 	movi	r2,1
  801720:	d0a74145 	stb	r2,-25339(gp)
      }
      g80 =((g81&&(!(_cg81)))||g79||g86b);
  801724:	d0a76403 	ldbu	r2,-25200(gp)
  801728:	10803fcc 	andi	r2,r2,255
  80172c:	1080201c 	xori	r2,r2,128
  801730:	10bfe004 	addi	r2,r2,-128
  801734:	10000526 	beq	r2,zero,80174c <tick+0x1410>
  801738:	d0a72a03 	ldbu	r2,-25432(gp)
  80173c:	10803fcc 	andi	r2,r2,255
  801740:	1080201c 	xori	r2,r2,128
  801744:	10bfe004 	addi	r2,r2,-128
  801748:	10000a26 	beq	r2,zero,801774 <tick+0x1438>
  80174c:	d0a745c3 	ldbu	r2,-25321(gp)
  801750:	10803fcc 	andi	r2,r2,255
  801754:	1080201c 	xori	r2,r2,128
  801758:	10bfe004 	addi	r2,r2,-128
  80175c:	1000051e 	bne	r2,zero,801774 <tick+0x1438>
  801760:	d0a75b43 	ldbu	r2,-25235(gp)
  801764:	10803fcc 	andi	r2,r2,255
  801768:	1080201c 	xori	r2,r2,128
  80176c:	10bfe004 	addi	r2,r2,-128
  801770:	10000226 	beq	r2,zero,80177c <tick+0x1440>
  801774:	00800044 	movi	r2,1
  801778:	00000106 	br	801780 <tick+0x1444>
  80177c:	0005883a 	mov	r2,zero
  801780:	d0a74a05 	stb	r2,-25304(gp)
      g82 =((g81&&_cg81)||(g89&&(!(_cg89))));
  801784:	d0a76403 	ldbu	r2,-25200(gp)
  801788:	10803fcc 	andi	r2,r2,255
  80178c:	1080201c 	xori	r2,r2,128
  801790:	10bfe004 	addi	r2,r2,-128
  801794:	10000526 	beq	r2,zero,8017ac <tick+0x1470>
  801798:	d0a72a03 	ldbu	r2,-25432(gp)
  80179c:	10803fcc 	andi	r2,r2,255
  8017a0:	1080201c 	xori	r2,r2,128
  8017a4:	10bfe004 	addi	r2,r2,-128
  8017a8:	10000a1e 	bne	r2,zero,8017d4 <tick+0x1498>
  8017ac:	d0a75c43 	ldbu	r2,-25231(gp)
  8017b0:	10803fcc 	andi	r2,r2,255
  8017b4:	1080201c 	xori	r2,r2,128
  8017b8:	10bfe004 	addi	r2,r2,-128
  8017bc:	10000726 	beq	r2,zero,8017dc <tick+0x14a0>
  8017c0:	d0a76783 	ldbu	r2,-25186(gp)
  8017c4:	10803fcc 	andi	r2,r2,255
  8017c8:	1080201c 	xori	r2,r2,128
  8017cc:	10bfe004 	addi	r2,r2,-128
  8017d0:	1000021e 	bne	r2,zero,8017dc <tick+0x14a0>
  8017d4:	00800044 	movi	r2,1
  8017d8:	00000106 	br	8017e0 <tick+0x14a4>
  8017dc:	0005883a 	mov	r2,zero
  8017e0:	d0a73845 	stb	r2,-25375(gp)
      g84 =(g83&&_cg83);
  8017e4:	d0a72a83 	ldbu	r2,-25430(gp)
  8017e8:	10803fcc 	andi	r2,r2,255
  8017ec:	1080201c 	xori	r2,r2,128
  8017f0:	10bfe004 	addi	r2,r2,-128
  8017f4:	10000726 	beq	r2,zero,801814 <tick+0x14d8>
  8017f8:	d0a74d43 	ldbu	r2,-25291(gp)
  8017fc:	10803fcc 	andi	r2,r2,255
  801800:	1080201c 	xori	r2,r2,128
  801804:	10bfe004 	addi	r2,r2,-128
  801808:	10000226 	beq	r2,zero,801814 <tick+0x14d8>
  80180c:	00800044 	movi	r2,1
  801810:	00000106 	br	801818 <tick+0x14dc>
  801814:	0005883a 	mov	r2,zero
  801818:	d0a73d85 	stb	r2,-25354(gp)
      if(g84){
  80181c:	d0a73d83 	ldbu	r2,-25354(gp)
  801820:	10803fcc 	andi	r2,r2,255
  801824:	1080201c 	xori	r2,r2,128
  801828:	10bfe004 	addi	r2,r2,-128
  80182c:	10000226 	beq	r2,zero,801838 <tick+0x14fc>
         LRIStop =(LRIStop||1);
  801830:	00800044 	movi	r2,1
  801834:	d0a76705 	stb	r2,-25188(gp)
      }
      g88 =(g87&&_cg87);
  801838:	d0a73503 	ldbu	r2,-25388(gp)
  80183c:	10803fcc 	andi	r2,r2,255
  801840:	1080201c 	xori	r2,r2,128
  801844:	10bfe004 	addi	r2,r2,-128
  801848:	10000726 	beq	r2,zero,801868 <tick+0x152c>
  80184c:	d0a74d83 	ldbu	r2,-25290(gp)
  801850:	10803fcc 	andi	r2,r2,255
  801854:	1080201c 	xori	r2,r2,128
  801858:	10bfe004 	addi	r2,r2,-128
  80185c:	10000226 	beq	r2,zero,801868 <tick+0x152c>
  801860:	00800044 	movi	r2,1
  801864:	00000106 	br	80186c <tick+0x1530>
  801868:	0005883a 	mov	r2,zero
  80186c:	d0a76e05 	stb	r2,-25160(gp)
      if(g88){
  801870:	d0a76e03 	ldbu	r2,-25160(gp)
  801874:	10803fcc 	andi	r2,r2,255
  801878:	1080201c 	xori	r2,r2,128
  80187c:	10bfe004 	addi	r2,r2,-128
  801880:	10000226 	beq	r2,zero,80188c <tick+0x1550>
         LRIStop =(LRIStop||1);
  801884:	00800044 	movi	r2,1
  801888:	d0a76705 	stb	r2,-25188(gp)
      }
      g85 =(g90||g88||g84);
  80188c:	d0a75443 	ldbu	r2,-25263(gp)
  801890:	10803fcc 	andi	r2,r2,255
  801894:	1080201c 	xori	r2,r2,128
  801898:	10bfe004 	addi	r2,r2,-128
  80189c:	10000a1e 	bne	r2,zero,8018c8 <tick+0x158c>
  8018a0:	d0a76e03 	ldbu	r2,-25160(gp)
  8018a4:	10803fcc 	andi	r2,r2,255
  8018a8:	1080201c 	xori	r2,r2,128
  8018ac:	10bfe004 	addi	r2,r2,-128
  8018b0:	1000051e 	bne	r2,zero,8018c8 <tick+0x158c>
  8018b4:	d0a73d83 	ldbu	r2,-25354(gp)
  8018b8:	10803fcc 	andi	r2,r2,255
  8018bc:	1080201c 	xori	r2,r2,128
  8018c0:	10bfe004 	addi	r2,r2,-128
  8018c4:	10000226 	beq	r2,zero,8018d0 <tick+0x1594>
  8018c8:	00800044 	movi	r2,1
  8018cc:	00000106 	br	8018d4 <tick+0x1598>
  8018d0:	0005883a 	mov	r2,zero
  8018d4:	d0a73005 	stb	r2,-25408(gp)
      g92 = g1;
  8018d8:	d0a73703 	ldbu	r2,-25380(gp)
  8018dc:	d0a736c5 	stb	r2,-25381(gp)
      g96 =(PRE_g95);
  8018e0:	d0a72bc3 	ldbu	r2,-25425(gp)
  8018e4:	d0a75d85 	stb	r2,-25226(gp)
      _cg96 = LRIExpired;
  8018e8:	d0a72b03 	ldbu	r2,-25428(gp)
  8018ec:	d0a72d85 	stb	r2,-25418(gp)
      g97 =(g96&&(!(_cg96)));
  8018f0:	d0a75d83 	ldbu	r2,-25226(gp)
  8018f4:	10803fcc 	andi	r2,r2,255
  8018f8:	1080201c 	xori	r2,r2,128
  8018fc:	10bfe004 	addi	r2,r2,-128
  801900:	10000726 	beq	r2,zero,801920 <tick+0x15e4>
  801904:	d0a72d83 	ldbu	r2,-25418(gp)
  801908:	10803fcc 	andi	r2,r2,255
  80190c:	1080201c 	xori	r2,r2,128
  801910:	10bfe004 	addi	r2,r2,-128
  801914:	1000021e 	bne	r2,zero,801920 <tick+0x15e4>
  801918:	00800044 	movi	r2,1
  80191c:	00000106 	br	801924 <tick+0x15e8>
  801920:	0005883a 	mov	r2,zero
  801924:	d0a73905 	stb	r2,-25372(gp)
      _cg97 = LRIStop;
  801928:	d0a76703 	ldbu	r2,-25188(gp)
  80192c:	d0a74285 	stb	r2,-25334(gp)
      g94 =(PRE_g93);
  801930:	d0a76b43 	ldbu	r2,-25171(gp)
  801934:	d0a746c5 	stb	r2,-25317(gp)
      g94b = g94;
  801938:	d0a746c3 	ldbu	r2,-25317(gp)
  80193c:	d0a730c5 	stb	r2,-25405(gp)
      _cg94 = LRIStart;
  801940:	d0a74143 	ldbu	r2,-25339(gp)
  801944:	d0a76a45 	stb	r2,-25175(gp)
      g93 =((g97&&_cg97)||(g94b&&(!(_cg94)))||g92||(g96&&_cg96));
  801948:	d0a73903 	ldbu	r2,-25372(gp)
  80194c:	10803fcc 	andi	r2,r2,255
  801950:	1080201c 	xori	r2,r2,128
  801954:	10bfe004 	addi	r2,r2,-128
  801958:	10000526 	beq	r2,zero,801970 <tick+0x1634>
  80195c:	d0a74283 	ldbu	r2,-25334(gp)
  801960:	10803fcc 	andi	r2,r2,255
  801964:	1080201c 	xori	r2,r2,128
  801968:	10bfe004 	addi	r2,r2,-128
  80196c:	1000191e 	bne	r2,zero,8019d4 <tick+0x1698>
  801970:	d0a730c3 	ldbu	r2,-25405(gp)
  801974:	10803fcc 	andi	r2,r2,255
  801978:	1080201c 	xori	r2,r2,128
  80197c:	10bfe004 	addi	r2,r2,-128
  801980:	10000526 	beq	r2,zero,801998 <tick+0x165c>
  801984:	d0a76a43 	ldbu	r2,-25175(gp)
  801988:	10803fcc 	andi	r2,r2,255
  80198c:	1080201c 	xori	r2,r2,128
  801990:	10bfe004 	addi	r2,r2,-128
  801994:	10000f26 	beq	r2,zero,8019d4 <tick+0x1698>
  801998:	d0a736c3 	ldbu	r2,-25381(gp)
  80199c:	10803fcc 	andi	r2,r2,255
  8019a0:	1080201c 	xori	r2,r2,128
  8019a4:	10bfe004 	addi	r2,r2,-128
  8019a8:	10000a1e 	bne	r2,zero,8019d4 <tick+0x1698>
  8019ac:	d0a75d83 	ldbu	r2,-25226(gp)
  8019b0:	10803fcc 	andi	r2,r2,255
  8019b4:	1080201c 	xori	r2,r2,128
  8019b8:	10bfe004 	addi	r2,r2,-128
  8019bc:	10000726 	beq	r2,zero,8019dc <tick+0x16a0>
  8019c0:	d0a72d83 	ldbu	r2,-25418(gp)
  8019c4:	10803fcc 	andi	r2,r2,255
  8019c8:	1080201c 	xori	r2,r2,128
  8019cc:	10bfe004 	addi	r2,r2,-128
  8019d0:	10000226 	beq	r2,zero,8019dc <tick+0x16a0>
  8019d4:	00800044 	movi	r2,1
  8019d8:	00000106 	br	8019e0 <tick+0x16a4>
  8019dc:	0005883a 	mov	r2,zero
  8019e0:	d0a75985 	stb	r2,-25242(gp)
      g95 =((g97&&(!(_cg97)))||(g94b&&_cg94));
  8019e4:	d0a73903 	ldbu	r2,-25372(gp)
  8019e8:	10803fcc 	andi	r2,r2,255
  8019ec:	1080201c 	xori	r2,r2,128
  8019f0:	10bfe004 	addi	r2,r2,-128
  8019f4:	10000526 	beq	r2,zero,801a0c <tick+0x16d0>
  8019f8:	d0a74283 	ldbu	r2,-25334(gp)
  8019fc:	10803fcc 	andi	r2,r2,255
  801a00:	1080201c 	xori	r2,r2,128
  801a04:	10bfe004 	addi	r2,r2,-128
  801a08:	10000a26 	beq	r2,zero,801a34 <tick+0x16f8>
  801a0c:	d0a730c3 	ldbu	r2,-25405(gp)
  801a10:	10803fcc 	andi	r2,r2,255
  801a14:	1080201c 	xori	r2,r2,128
  801a18:	10bfe004 	addi	r2,r2,-128
  801a1c:	10000726 	beq	r2,zero,801a3c <tick+0x1700>
  801a20:	d0a76a43 	ldbu	r2,-25175(gp)
  801a24:	10803fcc 	andi	r2,r2,255
  801a28:	1080201c 	xori	r2,r2,128
  801a2c:	10bfe004 	addi	r2,r2,-128
  801a30:	10000226 	beq	r2,zero,801a3c <tick+0x1700>
  801a34:	00800044 	movi	r2,1
  801a38:	00000106 	br	801a40 <tick+0x1704>
  801a3c:	0005883a 	mov	r2,zero
  801a40:	d0a75cc5 	stb	r2,-25229(gp)
      g99 = g1;
  801a44:	d0a73703 	ldbu	r2,-25380(gp)
  801a48:	d0a74c45 	stb	r2,-25295(gp)
      g101 =(PRE_g100);
  801a4c:	d0a767c3 	ldbu	r2,-25185(gp)
  801a50:	d0a74f85 	stb	r2,-25282(gp)
      _cg101 = VSense;
  801a54:	d0a75043 	ldbu	r2,-25279(gp)
  801a58:	d0a74105 	stb	r2,-25340(gp)
      g110 =(g101&&(!(_cg101)));
  801a5c:	d0a74f83 	ldbu	r2,-25282(gp)
  801a60:	10803fcc 	andi	r2,r2,255
  801a64:	1080201c 	xori	r2,r2,128
  801a68:	10bfe004 	addi	r2,r2,-128
  801a6c:	10000726 	beq	r2,zero,801a8c <tick+0x1750>
  801a70:	d0a74103 	ldbu	r2,-25340(gp)
  801a74:	10803fcc 	andi	r2,r2,255
  801a78:	1080201c 	xori	r2,r2,128
  801a7c:	10bfe004 	addi	r2,r2,-128
  801a80:	1000021e 	bne	r2,zero,801a8c <tick+0x1750>
  801a84:	00800044 	movi	r2,1
  801a88:	00000106 	br	801a90 <tick+0x1754>
  801a8c:	0005883a 	mov	r2,zero
  801a90:	d0a74705 	stb	r2,-25316(gp)
      _cg110 = VPace;
  801a94:	d0a77303 	ldbu	r2,-25140(gp)
  801a98:	d0a737c5 	stb	r2,-25377(gp)
      g108 =(PRE_g107);
  801a9c:	d0a75743 	ldbu	r2,-25251(gp)
  801aa0:	d0a72c45 	stb	r2,-25423(gp)
      _cg108 = URIExpired;
  801aa4:	d0a75383 	ldbu	r2,-25266(gp)
  801aa8:	d0a76645 	stb	r2,-25191(gp)
      g100 =(g99||(g110&&(!(_cg110)))||(g108&&_cg108));
  801aac:	d0a74c43 	ldbu	r2,-25295(gp)
  801ab0:	10803fcc 	andi	r2,r2,255
  801ab4:	1080201c 	xori	r2,r2,128
  801ab8:	10bfe004 	addi	r2,r2,-128
  801abc:	1000141e 	bne	r2,zero,801b10 <tick+0x17d4>
  801ac0:	d0a74703 	ldbu	r2,-25316(gp)
  801ac4:	10803fcc 	andi	r2,r2,255
  801ac8:	1080201c 	xori	r2,r2,128
  801acc:	10bfe004 	addi	r2,r2,-128
  801ad0:	10000526 	beq	r2,zero,801ae8 <tick+0x17ac>
  801ad4:	d0a737c3 	ldbu	r2,-25377(gp)
  801ad8:	10803fcc 	andi	r2,r2,255
  801adc:	1080201c 	xori	r2,r2,128
  801ae0:	10bfe004 	addi	r2,r2,-128
  801ae4:	10000a26 	beq	r2,zero,801b10 <tick+0x17d4>
  801ae8:	d0a72c43 	ldbu	r2,-25423(gp)
  801aec:	10803fcc 	andi	r2,r2,255
  801af0:	1080201c 	xori	r2,r2,128
  801af4:	10bfe004 	addi	r2,r2,-128
  801af8:	10000726 	beq	r2,zero,801b18 <tick+0x17dc>
  801afc:	d0a76643 	ldbu	r2,-25191(gp)
  801b00:	10803fcc 	andi	r2,r2,255
  801b04:	1080201c 	xori	r2,r2,128
  801b08:	10bfe004 	addi	r2,r2,-128
  801b0c:	10000226 	beq	r2,zero,801b18 <tick+0x17dc>
  801b10:	00800044 	movi	r2,1
  801b14:	00000106 	br	801b1c <tick+0x17e0>
  801b18:	0005883a 	mov	r2,zero
  801b1c:	d0a74ac5 	stb	r2,-25301(gp)
      g103 =(PRE_g102);
  801b20:	d0a72d03 	ldbu	r2,-25420(gp)
  801b24:	d0a72f45 	stb	r2,-25411(gp)
      _cg103 = VRPExpired;
  801b28:	d0a73583 	ldbu	r2,-25386(gp)
  801b2c:	d0a77085 	stb	r2,-25150(gp)
      g102 =((g103&&(!(_cg103)))||(g101&&_cg101));
  801b30:	d0a72f43 	ldbu	r2,-25411(gp)
  801b34:	10803fcc 	andi	r2,r2,255
  801b38:	1080201c 	xori	r2,r2,128
  801b3c:	10bfe004 	addi	r2,r2,-128
  801b40:	10000526 	beq	r2,zero,801b58 <tick+0x181c>
  801b44:	d0a77083 	ldbu	r2,-25150(gp)
  801b48:	10803fcc 	andi	r2,r2,255
  801b4c:	1080201c 	xori	r2,r2,128
  801b50:	10bfe004 	addi	r2,r2,-128
  801b54:	10000a26 	beq	r2,zero,801b80 <tick+0x1844>
  801b58:	d0a74f83 	ldbu	r2,-25282(gp)
  801b5c:	10803fcc 	andi	r2,r2,255
  801b60:	1080201c 	xori	r2,r2,128
  801b64:	10bfe004 	addi	r2,r2,-128
  801b68:	10000726 	beq	r2,zero,801b88 <tick+0x184c>
  801b6c:	d0a74103 	ldbu	r2,-25340(gp)
  801b70:	10803fcc 	andi	r2,r2,255
  801b74:	1080201c 	xori	r2,r2,128
  801b78:	10bfe004 	addi	r2,r2,-128
  801b7c:	10000226 	beq	r2,zero,801b88 <tick+0x184c>
  801b80:	00800044 	movi	r2,1
  801b84:	00000106 	br	801b8c <tick+0x1850>
  801b88:	0005883a 	mov	r2,zero
  801b8c:	d0a73345 	stb	r2,-25395(gp)
      g105 =(PRE_g104);
  801b90:	d0a74083 	ldbu	r2,-25342(gp)
  801b94:	d0a74245 	stb	r2,-25335(gp)
      _cg105 = VSense;
  801b98:	d0a75043 	ldbu	r2,-25279(gp)
  801b9c:	d0a77985 	stb	r2,-25114(gp)
      g109 =(g105&&(!(_cg105)));
  801ba0:	d0a74243 	ldbu	r2,-25335(gp)
  801ba4:	10803fcc 	andi	r2,r2,255
  801ba8:	1080201c 	xori	r2,r2,128
  801bac:	10bfe004 	addi	r2,r2,-128
  801bb0:	10000726 	beq	r2,zero,801bd0 <tick+0x1894>
  801bb4:	d0a77983 	ldbu	r2,-25114(gp)
  801bb8:	10803fcc 	andi	r2,r2,255
  801bbc:	1080201c 	xori	r2,r2,128
  801bc0:	10bfe004 	addi	r2,r2,-128
  801bc4:	1000021e 	bne	r2,zero,801bd0 <tick+0x1894>
  801bc8:	00800044 	movi	r2,1
  801bcc:	00000106 	br	801bd4 <tick+0x1898>
  801bd0:	0005883a 	mov	r2,zero
  801bd4:	d0a77505 	stb	r2,-25132(gp)
      _cg109 = VPace;
  801bd8:	d0a77303 	ldbu	r2,-25140(gp)
  801bdc:	d0a771c5 	stb	r2,-25145(gp)
      g104 =((g109&&(!(_cg109)))||(g103&&_cg103));
  801be0:	d0a77503 	ldbu	r2,-25132(gp)
  801be4:	10803fcc 	andi	r2,r2,255
  801be8:	1080201c 	xori	r2,r2,128
  801bec:	10bfe004 	addi	r2,r2,-128
  801bf0:	10000526 	beq	r2,zero,801c08 <tick+0x18cc>
  801bf4:	d0a771c3 	ldbu	r2,-25145(gp)
  801bf8:	10803fcc 	andi	r2,r2,255
  801bfc:	1080201c 	xori	r2,r2,128
  801c00:	10bfe004 	addi	r2,r2,-128
  801c04:	10000a26 	beq	r2,zero,801c30 <tick+0x18f4>
  801c08:	d0a72f43 	ldbu	r2,-25411(gp)
  801c0c:	10803fcc 	andi	r2,r2,255
  801c10:	1080201c 	xori	r2,r2,128
  801c14:	10bfe004 	addi	r2,r2,-128
  801c18:	10000726 	beq	r2,zero,801c38 <tick+0x18fc>
  801c1c:	d0a77083 	ldbu	r2,-25150(gp)
  801c20:	10803fcc 	andi	r2,r2,255
  801c24:	1080201c 	xori	r2,r2,128
  801c28:	10bfe004 	addi	r2,r2,-128
  801c2c:	10000226 	beq	r2,zero,801c38 <tick+0x18fc>
  801c30:	00800044 	movi	r2,1
  801c34:	00000106 	br	801c3c <tick+0x1900>
  801c38:	0005883a 	mov	r2,zero
  801c3c:	d0a76085 	stb	r2,-25214(gp)
      g106 =((g110&&_cg110)||(g105&&_cg105)||(g109&&_cg109));
  801c40:	d0a74703 	ldbu	r2,-25316(gp)
  801c44:	10803fcc 	andi	r2,r2,255
  801c48:	1080201c 	xori	r2,r2,128
  801c4c:	10bfe004 	addi	r2,r2,-128
  801c50:	10000526 	beq	r2,zero,801c68 <tick+0x192c>
  801c54:	d0a737c3 	ldbu	r2,-25377(gp)
  801c58:	10803fcc 	andi	r2,r2,255
  801c5c:	1080201c 	xori	r2,r2,128
  801c60:	10bfe004 	addi	r2,r2,-128
  801c64:	1000141e 	bne	r2,zero,801cb8 <tick+0x197c>
  801c68:	d0a74243 	ldbu	r2,-25335(gp)
  801c6c:	10803fcc 	andi	r2,r2,255
  801c70:	1080201c 	xori	r2,r2,128
  801c74:	10bfe004 	addi	r2,r2,-128
  801c78:	10000526 	beq	r2,zero,801c90 <tick+0x1954>
  801c7c:	d0a77983 	ldbu	r2,-25114(gp)
  801c80:	10803fcc 	andi	r2,r2,255
  801c84:	1080201c 	xori	r2,r2,128
  801c88:	10bfe004 	addi	r2,r2,-128
  801c8c:	10000a1e 	bne	r2,zero,801cb8 <tick+0x197c>
  801c90:	d0a77503 	ldbu	r2,-25132(gp)
  801c94:	10803fcc 	andi	r2,r2,255
  801c98:	1080201c 	xori	r2,r2,128
  801c9c:	10bfe004 	addi	r2,r2,-128
  801ca0:	10000726 	beq	r2,zero,801cc0 <tick+0x1984>
  801ca4:	d0a771c3 	ldbu	r2,-25145(gp)
  801ca8:	10803fcc 	andi	r2,r2,255
  801cac:	1080201c 	xori	r2,r2,128
  801cb0:	10bfe004 	addi	r2,r2,-128
  801cb4:	10000226 	beq	r2,zero,801cc0 <tick+0x1984>
  801cb8:	00800044 	movi	r2,1
  801cbc:	00000106 	br	801cc4 <tick+0x1988>
  801cc0:	0005883a 	mov	r2,zero
  801cc4:	d0a775c5 	stb	r2,-25129(gp)
      if(g106){
  801cc8:	d0a775c3 	ldbu	r2,-25129(gp)
  801ccc:	10803fcc 	andi	r2,r2,255
  801cd0:	1080201c 	xori	r2,r2,128
  801cd4:	10bfe004 	addi	r2,r2,-128
  801cd8:	10000226 	beq	r2,zero,801ce4 <tick+0x19a8>
         URIStart =(URIStart||1);
  801cdc:	00800044 	movi	r2,1
  801ce0:	d0a779c5 	stb	r2,-25113(gp)
      }
      g107 =(g106||(g108&&(!(_cg108))));
  801ce4:	d0a775c3 	ldbu	r2,-25129(gp)
  801ce8:	10803fcc 	andi	r2,r2,255
  801cec:	1080201c 	xori	r2,r2,128
  801cf0:	10bfe004 	addi	r2,r2,-128
  801cf4:	10000a1e 	bne	r2,zero,801d20 <tick+0x19e4>
  801cf8:	d0a72c43 	ldbu	r2,-25423(gp)
  801cfc:	10803fcc 	andi	r2,r2,255
  801d00:	1080201c 	xori	r2,r2,128
  801d04:	10bfe004 	addi	r2,r2,-128
  801d08:	10000726 	beq	r2,zero,801d28 <tick+0x19ec>
  801d0c:	d0a76643 	ldbu	r2,-25191(gp)
  801d10:	10803fcc 	andi	r2,r2,255
  801d14:	1080201c 	xori	r2,r2,128
  801d18:	10bfe004 	addi	r2,r2,-128
  801d1c:	1000021e 	bne	r2,zero,801d28 <tick+0x19ec>
  801d20:	00800044 	movi	r2,1
  801d24:	00000106 	br	801d2c <tick+0x19f0>
  801d28:	0005883a 	mov	r2,zero
  801d2c:	d0a75e85 	stb	r2,-25222(gp)
      g112 = g1;
  801d30:	d0a73703 	ldbu	r2,-25380(gp)
  801d34:	d0a72ec5 	stb	r2,-25413(gp)
      g114 =(PRE_g113);
  801d38:	d0a75b03 	ldbu	r2,-25236(gp)
  801d3c:	d0a74fc5 	stb	r2,-25281(gp)
      g114b = g114;
  801d40:	d0a74fc3 	ldbu	r2,-25281(gp)
  801d44:	d0a73105 	stb	r2,-25404(gp)
      _cg114 = URIStart;
  801d48:	d0a779c3 	ldbu	r2,-25113(gp)
  801d4c:	d0a750c5 	stb	r2,-25277(gp)
      g116 =(PRE_g115);
  801d50:	d0a76103 	ldbu	r2,-25212(gp)
  801d54:	d0a76305 	stb	r2,-25204(gp)
      _cg116 = URIExpired;
  801d58:	d0a75383 	ldbu	r2,-25266(gp)
  801d5c:	d0a72e85 	stb	r2,-25414(gp)
      g117 =(g116&&(!(_cg116)));
  801d60:	d0a76303 	ldbu	r2,-25204(gp)
  801d64:	10803fcc 	andi	r2,r2,255
  801d68:	1080201c 	xori	r2,r2,128
  801d6c:	10bfe004 	addi	r2,r2,-128
  801d70:	10000726 	beq	r2,zero,801d90 <tick+0x1a54>
  801d74:	d0a72e83 	ldbu	r2,-25414(gp)
  801d78:	10803fcc 	andi	r2,r2,255
  801d7c:	1080201c 	xori	r2,r2,128
  801d80:	10bfe004 	addi	r2,r2,-128
  801d84:	1000021e 	bne	r2,zero,801d90 <tick+0x1a54>
  801d88:	00800044 	movi	r2,1
  801d8c:	00000106 	br	801d94 <tick+0x1a58>
  801d90:	0005883a 	mov	r2,zero
  801d94:	d0a74445 	stb	r2,-25327(gp)
      _cg117 = URIStop;
  801d98:	d0a753c3 	ldbu	r2,-25265(gp)
  801d9c:	d0a75f45 	stb	r2,-25219(gp)
      g113 =((g114b&&(!(_cg114)))||(g116&&_cg116)||g112||(g117&&_cg117));
  801da0:	d0a73103 	ldbu	r2,-25404(gp)
  801da4:	10803fcc 	andi	r2,r2,255
  801da8:	1080201c 	xori	r2,r2,128
  801dac:	10bfe004 	addi	r2,r2,-128
  801db0:	10000526 	beq	r2,zero,801dc8 <tick+0x1a8c>
  801db4:	d0a750c3 	ldbu	r2,-25277(gp)
  801db8:	10803fcc 	andi	r2,r2,255
  801dbc:	1080201c 	xori	r2,r2,128
  801dc0:	10bfe004 	addi	r2,r2,-128
  801dc4:	10001926 	beq	r2,zero,801e2c <tick+0x1af0>
  801dc8:	d0a76303 	ldbu	r2,-25204(gp)
  801dcc:	10803fcc 	andi	r2,r2,255
  801dd0:	1080201c 	xori	r2,r2,128
  801dd4:	10bfe004 	addi	r2,r2,-128
  801dd8:	10000526 	beq	r2,zero,801df0 <tick+0x1ab4>
  801ddc:	d0a72e83 	ldbu	r2,-25414(gp)
  801de0:	10803fcc 	andi	r2,r2,255
  801de4:	1080201c 	xori	r2,r2,128
  801de8:	10bfe004 	addi	r2,r2,-128
  801dec:	10000f1e 	bne	r2,zero,801e2c <tick+0x1af0>
  801df0:	d0a72ec3 	ldbu	r2,-25413(gp)
  801df4:	10803fcc 	andi	r2,r2,255
  801df8:	1080201c 	xori	r2,r2,128
  801dfc:	10bfe004 	addi	r2,r2,-128
  801e00:	10000a1e 	bne	r2,zero,801e2c <tick+0x1af0>
  801e04:	d0a74443 	ldbu	r2,-25327(gp)
  801e08:	10803fcc 	andi	r2,r2,255
  801e0c:	1080201c 	xori	r2,r2,128
  801e10:	10bfe004 	addi	r2,r2,-128
  801e14:	10000726 	beq	r2,zero,801e34 <tick+0x1af8>
  801e18:	d0a75f43 	ldbu	r2,-25219(gp)
  801e1c:	10803fcc 	andi	r2,r2,255
  801e20:	1080201c 	xori	r2,r2,128
  801e24:	10bfe004 	addi	r2,r2,-128
  801e28:	10000226 	beq	r2,zero,801e34 <tick+0x1af8>
  801e2c:	00800044 	movi	r2,1
  801e30:	00000106 	br	801e38 <tick+0x1afc>
  801e34:	0005883a 	mov	r2,zero
  801e38:	d0a75f05 	stb	r2,-25220(gp)
      g115 =((g117&&(!(_cg117)))||(g114b&&_cg114));
  801e3c:	d0a74443 	ldbu	r2,-25327(gp)
  801e40:	10803fcc 	andi	r2,r2,255
  801e44:	1080201c 	xori	r2,r2,128
  801e48:	10bfe004 	addi	r2,r2,-128
  801e4c:	10000526 	beq	r2,zero,801e64 <tick+0x1b28>
  801e50:	d0a75f43 	ldbu	r2,-25219(gp)
  801e54:	10803fcc 	andi	r2,r2,255
  801e58:	1080201c 	xori	r2,r2,128
  801e5c:	10bfe004 	addi	r2,r2,-128
  801e60:	10000a26 	beq	r2,zero,801e8c <tick+0x1b50>
  801e64:	d0a73103 	ldbu	r2,-25404(gp)
  801e68:	10803fcc 	andi	r2,r2,255
  801e6c:	1080201c 	xori	r2,r2,128
  801e70:	10bfe004 	addi	r2,r2,-128
  801e74:	10000726 	beq	r2,zero,801e94 <tick+0x1b58>
  801e78:	d0a750c3 	ldbu	r2,-25277(gp)
  801e7c:	10803fcc 	andi	r2,r2,255
  801e80:	1080201c 	xori	r2,r2,128
  801e84:	10bfe004 	addi	r2,r2,-128
  801e88:	10000226 	beq	r2,zero,801e94 <tick+0x1b58>
  801e8c:	00800044 	movi	r2,1
  801e90:	00000106 	br	801e98 <tick+0x1b5c>
  801e94:	0005883a 	mov	r2,zero
  801e98:	d0a73385 	stb	r2,-25394(gp)
      g16_e1 =(!((g4||g6||g8||g11)));
  801e9c:	d0a72c03 	ldbu	r2,-25424(gp)
  801ea0:	10803fcc 	andi	r2,r2,255
  801ea4:	1080201c 	xori	r2,r2,128
  801ea8:	10bfe004 	addi	r2,r2,-128
  801eac:	1000111e 	bne	r2,zero,801ef4 <tick+0x1bb8>
  801eb0:	d0a76343 	ldbu	r2,-25203(gp)
  801eb4:	10803fcc 	andi	r2,r2,255
  801eb8:	1080201c 	xori	r2,r2,128
  801ebc:	10bfe004 	addi	r2,r2,-128
  801ec0:	10000c1e 	bne	r2,zero,801ef4 <tick+0x1bb8>
  801ec4:	d0a761c3 	ldbu	r2,-25209(gp)
  801ec8:	10803fcc 	andi	r2,r2,255
  801ecc:	1080201c 	xori	r2,r2,128
  801ed0:	10bfe004 	addi	r2,r2,-128
  801ed4:	1000071e 	bne	r2,zero,801ef4 <tick+0x1bb8>
  801ed8:	d0a76c03 	ldbu	r2,-25168(gp)
  801edc:	10803fcc 	andi	r2,r2,255
  801ee0:	1080201c 	xori	r2,r2,128
  801ee4:	10bfe004 	addi	r2,r2,-128
  801ee8:	1000021e 	bne	r2,zero,801ef4 <tick+0x1bb8>
  801eec:	00800044 	movi	r2,1
  801ef0:	00000106 	br	801ef8 <tick+0x1bbc>
  801ef4:	0005883a 	mov	r2,zero
  801ef8:	d0a75d45 	stb	r2,-25227(gp)
      g34_e2 =(!((g19||g21||g28||g23||g32)));
  801efc:	d0a72c83 	ldbu	r2,-25422(gp)
  801f00:	10803fcc 	andi	r2,r2,255
  801f04:	1080201c 	xori	r2,r2,128
  801f08:	10bfe004 	addi	r2,r2,-128
  801f0c:	1000161e 	bne	r2,zero,801f68 <tick+0x1c2c>
  801f10:	d0a74503 	ldbu	r2,-25324(gp)
  801f14:	10803fcc 	andi	r2,r2,255
  801f18:	1080201c 	xori	r2,r2,128
  801f1c:	10bfe004 	addi	r2,r2,-128
  801f20:	1000111e 	bne	r2,zero,801f68 <tick+0x1c2c>
  801f24:	d0a76cc3 	ldbu	r2,-25165(gp)
  801f28:	10803fcc 	andi	r2,r2,255
  801f2c:	1080201c 	xori	r2,r2,128
  801f30:	10bfe004 	addi	r2,r2,-128
  801f34:	10000c1e 	bne	r2,zero,801f68 <tick+0x1c2c>
  801f38:	d0a74d03 	ldbu	r2,-25292(gp)
  801f3c:	10803fcc 	andi	r2,r2,255
  801f40:	1080201c 	xori	r2,r2,128
  801f44:	10bfe004 	addi	r2,r2,-128
  801f48:	1000071e 	bne	r2,zero,801f68 <tick+0x1c2c>
  801f4c:	d0a76d83 	ldbu	r2,-25162(gp)
  801f50:	10803fcc 	andi	r2,r2,255
  801f54:	1080201c 	xori	r2,r2,128
  801f58:	10bfe004 	addi	r2,r2,-128
  801f5c:	1000021e 	bne	r2,zero,801f68 <tick+0x1c2c>
  801f60:	00800044 	movi	r2,1
  801f64:	00000106 	br	801f6c <tick+0x1c30>
  801f68:	0005883a 	mov	r2,zero
  801f6c:	d0a74e05 	stb	r2,-25288(gp)
      g43_e3 =(!((g37||g40)));
  801f70:	d0a73cc3 	ldbu	r2,-25357(gp)
  801f74:	10803fcc 	andi	r2,r2,255
  801f78:	1080201c 	xori	r2,r2,128
  801f7c:	10bfe004 	addi	r2,r2,-128
  801f80:	1000071e 	bne	r2,zero,801fa0 <tick+0x1c64>
  801f84:	d0a72ac3 	ldbu	r2,-25429(gp)
  801f88:	10803fcc 	andi	r2,r2,255
  801f8c:	1080201c 	xori	r2,r2,128
  801f90:	10bfe004 	addi	r2,r2,-128
  801f94:	1000021e 	bne	r2,zero,801fa0 <tick+0x1c64>
  801f98:	00800044 	movi	r2,1
  801f9c:	00000106 	br	801fa4 <tick+0x1c68>
  801fa0:	0005883a 	mov	r2,zero
  801fa4:	d0a77945 	stb	r2,-25115(gp)
      g52_e4 =(!((g46||g49)));
  801fa8:	d0a75c83 	ldbu	r2,-25230(gp)
  801fac:	10803fcc 	andi	r2,r2,255
  801fb0:	1080201c 	xori	r2,r2,128
  801fb4:	10bfe004 	addi	r2,r2,-128
  801fb8:	1000071e 	bne	r2,zero,801fd8 <tick+0x1c9c>
  801fbc:	d0a74743 	ldbu	r2,-25315(gp)
  801fc0:	10803fcc 	andi	r2,r2,255
  801fc4:	1080201c 	xori	r2,r2,128
  801fc8:	10bfe004 	addi	r2,r2,-128
  801fcc:	1000021e 	bne	r2,zero,801fd8 <tick+0x1c9c>
  801fd0:	00800044 	movi	r2,1
  801fd4:	00000106 	br	801fdc <tick+0x1ca0>
  801fd8:	0005883a 	mov	r2,zero
  801fdc:	d0a762c5 	stb	r2,-25205(gp)
      g67_e5 =(!((g55||g57||g59||g62)));
  801fe0:	d0a72d43 	ldbu	r2,-25419(gp)
  801fe4:	10803fcc 	andi	r2,r2,255
  801fe8:	1080201c 	xori	r2,r2,128
  801fec:	10bfe004 	addi	r2,r2,-128
  801ff0:	1000111e 	bne	r2,zero,802038 <tick+0x1cfc>
  801ff4:	d0a76203 	ldbu	r2,-25208(gp)
  801ff8:	10803fcc 	andi	r2,r2,255
  801ffc:	1080201c 	xori	r2,r2,128
  802000:	10bfe004 	addi	r2,r2,-128
  802004:	10000c1e 	bne	r2,zero,802038 <tick+0x1cfc>
  802008:	d0a74c03 	ldbu	r2,-25296(gp)
  80200c:	10803fcc 	andi	r2,r2,255
  802010:	1080201c 	xori	r2,r2,128
  802014:	10bfe004 	addi	r2,r2,-128
  802018:	1000071e 	bne	r2,zero,802038 <tick+0x1cfc>
  80201c:	d0a73d43 	ldbu	r2,-25355(gp)
  802020:	10803fcc 	andi	r2,r2,255
  802024:	1080201c 	xori	r2,r2,128
  802028:	10bfe004 	addi	r2,r2,-128
  80202c:	1000021e 	bne	r2,zero,802038 <tick+0x1cfc>
  802030:	00800044 	movi	r2,1
  802034:	00000106 	br	80203c <tick+0x1d00>
  802038:	0005883a 	mov	r2,zero
  80203c:	d0a74405 	stb	r2,-25328(gp)
      g75_e6 =(!((g70||g72)));
  802040:	d0a76243 	ldbu	r2,-25207(gp)
  802044:	10803fcc 	andi	r2,r2,255
  802048:	1080201c 	xori	r2,r2,128
  80204c:	10bfe004 	addi	r2,r2,-128
  802050:	1000071e 	bne	r2,zero,802070 <tick+0x1d34>
  802054:	d0a763c3 	ldbu	r2,-25201(gp)
  802058:	10803fcc 	andi	r2,r2,255
  80205c:	1080201c 	xori	r2,r2,128
  802060:	10bfe004 	addi	r2,r2,-128
  802064:	1000021e 	bne	r2,zero,802070 <tick+0x1d34>
  802068:	00800044 	movi	r2,1
  80206c:	00000106 	br	802074 <tick+0x1d38>
  802070:	0005883a 	mov	r2,zero
  802074:	d0a75205 	stb	r2,-25272(gp)
      g91_e7 =(!((g78||g81||g83||g86)));
  802078:	d0a75103 	ldbu	r2,-25276(gp)
  80207c:	10803fcc 	andi	r2,r2,255
  802080:	1080201c 	xori	r2,r2,128
  802084:	10bfe004 	addi	r2,r2,-128
  802088:	1000111e 	bne	r2,zero,8020d0 <tick+0x1d94>
  80208c:	d0a76403 	ldbu	r2,-25200(gp)
  802090:	10803fcc 	andi	r2,r2,255
  802094:	1080201c 	xori	r2,r2,128
  802098:	10bfe004 	addi	r2,r2,-128
  80209c:	10000c1e 	bne	r2,zero,8020d0 <tick+0x1d94>
  8020a0:	d0a72a83 	ldbu	r2,-25430(gp)
  8020a4:	10803fcc 	andi	r2,r2,255
  8020a8:	1080201c 	xori	r2,r2,128
  8020ac:	10bfe004 	addi	r2,r2,-128
  8020b0:	1000071e 	bne	r2,zero,8020d0 <tick+0x1d94>
  8020b4:	d0a75a43 	ldbu	r2,-25239(gp)
  8020b8:	10803fcc 	andi	r2,r2,255
  8020bc:	1080201c 	xori	r2,r2,128
  8020c0:	10bfe004 	addi	r2,r2,-128
  8020c4:	1000021e 	bne	r2,zero,8020d0 <tick+0x1d94>
  8020c8:	00800044 	movi	r2,1
  8020cc:	00000106 	br	8020d4 <tick+0x1d98>
  8020d0:	0005883a 	mov	r2,zero
  8020d4:	d0a74a85 	stb	r2,-25302(gp)
      g98_e8 =(!((g94||g96)));
  8020d8:	d0a746c3 	ldbu	r2,-25317(gp)
  8020dc:	10803fcc 	andi	r2,r2,255
  8020e0:	1080201c 	xori	r2,r2,128
  8020e4:	10bfe004 	addi	r2,r2,-128
  8020e8:	1000071e 	bne	r2,zero,802108 <tick+0x1dcc>
  8020ec:	d0a75d83 	ldbu	r2,-25226(gp)
  8020f0:	10803fcc 	andi	r2,r2,255
  8020f4:	1080201c 	xori	r2,r2,128
  8020f8:	10bfe004 	addi	r2,r2,-128
  8020fc:	1000021e 	bne	r2,zero,802108 <tick+0x1dcc>
  802100:	00800044 	movi	r2,1
  802104:	00000106 	br	80210c <tick+0x1dd0>
  802108:	0005883a 	mov	r2,zero
  80210c:	d0a74185 	stb	r2,-25338(gp)
      g111_e9 =(!((g101||g103||g105||g108)));
  802110:	d0a74f83 	ldbu	r2,-25282(gp)
  802114:	10803fcc 	andi	r2,r2,255
  802118:	1080201c 	xori	r2,r2,128
  80211c:	10bfe004 	addi	r2,r2,-128
  802120:	1000111e 	bne	r2,zero,802168 <tick+0x1e2c>
  802124:	d0a72f43 	ldbu	r2,-25411(gp)
  802128:	10803fcc 	andi	r2,r2,255
  80212c:	1080201c 	xori	r2,r2,128
  802130:	10bfe004 	addi	r2,r2,-128
  802134:	10000c1e 	bne	r2,zero,802168 <tick+0x1e2c>
  802138:	d0a74243 	ldbu	r2,-25335(gp)
  80213c:	10803fcc 	andi	r2,r2,255
  802140:	1080201c 	xori	r2,r2,128
  802144:	10bfe004 	addi	r2,r2,-128
  802148:	1000071e 	bne	r2,zero,802168 <tick+0x1e2c>
  80214c:	d0a72c43 	ldbu	r2,-25423(gp)
  802150:	10803fcc 	andi	r2,r2,255
  802154:	1080201c 	xori	r2,r2,128
  802158:	10bfe004 	addi	r2,r2,-128
  80215c:	1000021e 	bne	r2,zero,802168 <tick+0x1e2c>
  802160:	00800044 	movi	r2,1
  802164:	00000106 	br	80216c <tick+0x1e30>
  802168:	0005883a 	mov	r2,zero
  80216c:	d0a73c05 	stb	r2,-25360(gp)
      g118_e10 =(!((g114||g116)));
  802170:	d0a74fc3 	ldbu	r2,-25281(gp)
  802174:	10803fcc 	andi	r2,r2,255
  802178:	1080201c 	xori	r2,r2,128
  80217c:	10bfe004 	addi	r2,r2,-128
  802180:	1000071e 	bne	r2,zero,8021a0 <tick+0x1e64>
  802184:	d0a76303 	ldbu	r2,-25204(gp)
  802188:	10803fcc 	andi	r2,r2,255
  80218c:	1080201c 	xori	r2,r2,128
  802190:	10bfe004 	addi	r2,r2,-128
  802194:	1000021e 	bne	r2,zero,8021a0 <tick+0x1e64>
  802198:	00800044 	movi	r2,1
  80219c:	00000106 	br	8021a4 <tick+0x1e68>
  8021a0:	0005883a 	mov	r2,zero
  8021a4:	d0a739c5 	stb	r2,-25369(gp)
      g119_fix0 =((g16_e1||g16)&&(g34_e2||g34)&&(g43_e3||g43)&&(g52_e4||g52));
  8021a8:	d0a75d43 	ldbu	r2,-25227(gp)
  8021ac:	10803fcc 	andi	r2,r2,255
  8021b0:	1080201c 	xori	r2,r2,128
  8021b4:	10bfe004 	addi	r2,r2,-128
  8021b8:	1000051e 	bne	r2,zero,8021d0 <tick+0x1e94>
  8021bc:	d0a76943 	ldbu	r2,-25179(gp)
  8021c0:	10803fcc 	andi	r2,r2,255
  8021c4:	1080201c 	xori	r2,r2,128
  8021c8:	10bfe004 	addi	r2,r2,-128
  8021cc:	10002026 	beq	r2,zero,802250 <tick+0x1f14>
  8021d0:	d0a74e03 	ldbu	r2,-25288(gp)
  8021d4:	10803fcc 	andi	r2,r2,255
  8021d8:	1080201c 	xori	r2,r2,128
  8021dc:	10bfe004 	addi	r2,r2,-128
  8021e0:	1000051e 	bne	r2,zero,8021f8 <tick+0x1ebc>
  8021e4:	d0a74603 	ldbu	r2,-25320(gp)
  8021e8:	10803fcc 	andi	r2,r2,255
  8021ec:	1080201c 	xori	r2,r2,128
  8021f0:	10bfe004 	addi	r2,r2,-128
  8021f4:	10001626 	beq	r2,zero,802250 <tick+0x1f14>
  8021f8:	d0a77943 	ldbu	r2,-25115(gp)
  8021fc:	10803fcc 	andi	r2,r2,255
  802200:	1080201c 	xori	r2,r2,128
  802204:	10bfe004 	addi	r2,r2,-128
  802208:	1000051e 	bne	r2,zero,802220 <tick+0x1ee4>
  80220c:	d0a75a83 	ldbu	r2,-25238(gp)
  802210:	10803fcc 	andi	r2,r2,255
  802214:	1080201c 	xori	r2,r2,128
  802218:	10bfe004 	addi	r2,r2,-128
  80221c:	10000c26 	beq	r2,zero,802250 <tick+0x1f14>
  802220:	d0a762c3 	ldbu	r2,-25205(gp)
  802224:	10803fcc 	andi	r2,r2,255
  802228:	1080201c 	xori	r2,r2,128
  80222c:	10bfe004 	addi	r2,r2,-128
  802230:	1000051e 	bne	r2,zero,802248 <tick+0x1f0c>
  802234:	d0a73943 	ldbu	r2,-25371(gp)
  802238:	10803fcc 	andi	r2,r2,255
  80223c:	1080201c 	xori	r2,r2,128
  802240:	10bfe004 	addi	r2,r2,-128
  802244:	10000226 	beq	r2,zero,802250 <tick+0x1f14>
  802248:	00800044 	movi	r2,1
  80224c:	00000106 	br	802254 <tick+0x1f18>
  802250:	0005883a 	mov	r2,zero
  802254:	d0a73805 	stb	r2,-25376(gp)
      g119_fix1 =(g16||g34||g43||g52);
  802258:	d0a76943 	ldbu	r2,-25179(gp)
  80225c:	10803fcc 	andi	r2,r2,255
  802260:	1080201c 	xori	r2,r2,128
  802264:	10bfe004 	addi	r2,r2,-128
  802268:	10000f1e 	bne	r2,zero,8022a8 <tick+0x1f6c>
  80226c:	d0a74603 	ldbu	r2,-25320(gp)
  802270:	10803fcc 	andi	r2,r2,255
  802274:	1080201c 	xori	r2,r2,128
  802278:	10bfe004 	addi	r2,r2,-128
  80227c:	10000a1e 	bne	r2,zero,8022a8 <tick+0x1f6c>
  802280:	d0a75a83 	ldbu	r2,-25238(gp)
  802284:	10803fcc 	andi	r2,r2,255
  802288:	1080201c 	xori	r2,r2,128
  80228c:	10bfe004 	addi	r2,r2,-128
  802290:	1000051e 	bne	r2,zero,8022a8 <tick+0x1f6c>
  802294:	d0a73943 	ldbu	r2,-25371(gp)
  802298:	10803fcc 	andi	r2,r2,255
  80229c:	1080201c 	xori	r2,r2,128
  8022a0:	10bfe004 	addi	r2,r2,-128
  8022a4:	10000226 	beq	r2,zero,8022b0 <tick+0x1f74>
  8022a8:	00800044 	movi	r2,1
  8022ac:	00000106 	br	8022b4 <tick+0x1f78>
  8022b0:	0005883a 	mov	r2,zero
  8022b4:	d0a73a85 	stb	r2,-25366(gp)
      g119_e1_fix_fix =(g116||g28||g40||g49||g81||g8||g11||g23||g59||g62||g105||g108||g83);
  8022b8:	d0a76303 	ldbu	r2,-25204(gp)
  8022bc:	10803fcc 	andi	r2,r2,255
  8022c0:	1080201c 	xori	r2,r2,128
  8022c4:	10bfe004 	addi	r2,r2,-128
  8022c8:	10003c1e 	bne	r2,zero,8023bc <tick+0x2080>
  8022cc:	d0a76cc3 	ldbu	r2,-25165(gp)
  8022d0:	10803fcc 	andi	r2,r2,255
  8022d4:	1080201c 	xori	r2,r2,128
  8022d8:	10bfe004 	addi	r2,r2,-128
  8022dc:	1000371e 	bne	r2,zero,8023bc <tick+0x2080>
  8022e0:	d0a72ac3 	ldbu	r2,-25429(gp)
  8022e4:	10803fcc 	andi	r2,r2,255
  8022e8:	1080201c 	xori	r2,r2,128
  8022ec:	10bfe004 	addi	r2,r2,-128
  8022f0:	1000321e 	bne	r2,zero,8023bc <tick+0x2080>
  8022f4:	d0a74743 	ldbu	r2,-25315(gp)
  8022f8:	10803fcc 	andi	r2,r2,255
  8022fc:	1080201c 	xori	r2,r2,128
  802300:	10bfe004 	addi	r2,r2,-128
  802304:	10002d1e 	bne	r2,zero,8023bc <tick+0x2080>
  802308:	d0a76403 	ldbu	r2,-25200(gp)
  80230c:	10803fcc 	andi	r2,r2,255
  802310:	1080201c 	xori	r2,r2,128
  802314:	10bfe004 	addi	r2,r2,-128
  802318:	1000281e 	bne	r2,zero,8023bc <tick+0x2080>
  80231c:	d0a761c3 	ldbu	r2,-25209(gp)
  802320:	10803fcc 	andi	r2,r2,255
  802324:	1080201c 	xori	r2,r2,128
  802328:	10bfe004 	addi	r2,r2,-128
  80232c:	1000231e 	bne	r2,zero,8023bc <tick+0x2080>
  802330:	d0a76c03 	ldbu	r2,-25168(gp)
  802334:	10803fcc 	andi	r2,r2,255
  802338:	1080201c 	xori	r2,r2,128
  80233c:	10bfe004 	addi	r2,r2,-128
  802340:	10001e1e 	bne	r2,zero,8023bc <tick+0x2080>
  802344:	d0a74d03 	ldbu	r2,-25292(gp)
  802348:	10803fcc 	andi	r2,r2,255
  80234c:	1080201c 	xori	r2,r2,128
  802350:	10bfe004 	addi	r2,r2,-128
  802354:	1000191e 	bne	r2,zero,8023bc <tick+0x2080>
  802358:	d0a74c03 	ldbu	r2,-25296(gp)
  80235c:	10803fcc 	andi	r2,r2,255
  802360:	1080201c 	xori	r2,r2,128
  802364:	10bfe004 	addi	r2,r2,-128
  802368:	1000141e 	bne	r2,zero,8023bc <tick+0x2080>
  80236c:	d0a73d43 	ldbu	r2,-25355(gp)
  802370:	10803fcc 	andi	r2,r2,255
  802374:	1080201c 	xori	r2,r2,128
  802378:	10bfe004 	addi	r2,r2,-128
  80237c:	10000f1e 	bne	r2,zero,8023bc <tick+0x2080>
  802380:	d0a74243 	ldbu	r2,-25335(gp)
  802384:	10803fcc 	andi	r2,r2,255
  802388:	1080201c 	xori	r2,r2,128
  80238c:	10bfe004 	addi	r2,r2,-128
  802390:	10000a1e 	bne	r2,zero,8023bc <tick+0x2080>
  802394:	d0a72c43 	ldbu	r2,-25423(gp)
  802398:	10803fcc 	andi	r2,r2,255
  80239c:	1080201c 	xori	r2,r2,128
  8023a0:	10bfe004 	addi	r2,r2,-128
  8023a4:	1000051e 	bne	r2,zero,8023bc <tick+0x2080>
  8023a8:	d0a72a83 	ldbu	r2,-25430(gp)
  8023ac:	10803fcc 	andi	r2,r2,255
  8023b0:	1080201c 	xori	r2,r2,128
  8023b4:	10bfe004 	addi	r2,r2,-128
  8023b8:	10000226 	beq	r2,zero,8023c4 <tick+0x2088>
  8023bc:	00800044 	movi	r2,1
  8023c0:	00000106 	br	8023c8 <tick+0x208c>
  8023c4:	0005883a 	mov	r2,zero
  8023c8:	d0a74645 	stb	r2,-25319(gp)
      g119_e1_fix =(g101||g114||g6||g21||g57||g72||g96||g103||g32||g119_e1_fix_fix);
  8023cc:	d0a74f83 	ldbu	r2,-25282(gp)
  8023d0:	10803fcc 	andi	r2,r2,255
  8023d4:	1080201c 	xori	r2,r2,128
  8023d8:	10bfe004 	addi	r2,r2,-128
  8023dc:	10002d1e 	bne	r2,zero,802494 <tick+0x2158>
  8023e0:	d0a74fc3 	ldbu	r2,-25281(gp)
  8023e4:	10803fcc 	andi	r2,r2,255
  8023e8:	1080201c 	xori	r2,r2,128
  8023ec:	10bfe004 	addi	r2,r2,-128
  8023f0:	1000281e 	bne	r2,zero,802494 <tick+0x2158>
  8023f4:	d0a76343 	ldbu	r2,-25203(gp)
  8023f8:	10803fcc 	andi	r2,r2,255
  8023fc:	1080201c 	xori	r2,r2,128
  802400:	10bfe004 	addi	r2,r2,-128
  802404:	1000231e 	bne	r2,zero,802494 <tick+0x2158>
  802408:	d0a74503 	ldbu	r2,-25324(gp)
  80240c:	10803fcc 	andi	r2,r2,255
  802410:	1080201c 	xori	r2,r2,128
  802414:	10bfe004 	addi	r2,r2,-128
  802418:	10001e1e 	bne	r2,zero,802494 <tick+0x2158>
  80241c:	d0a76203 	ldbu	r2,-25208(gp)
  802420:	10803fcc 	andi	r2,r2,255
  802424:	1080201c 	xori	r2,r2,128
  802428:	10bfe004 	addi	r2,r2,-128
  80242c:	1000191e 	bne	r2,zero,802494 <tick+0x2158>
  802430:	d0a763c3 	ldbu	r2,-25201(gp)
  802434:	10803fcc 	andi	r2,r2,255
  802438:	1080201c 	xori	r2,r2,128
  80243c:	10bfe004 	addi	r2,r2,-128
  802440:	1000141e 	bne	r2,zero,802494 <tick+0x2158>
  802444:	d0a75d83 	ldbu	r2,-25226(gp)
  802448:	10803fcc 	andi	r2,r2,255
  80244c:	1080201c 	xori	r2,r2,128
  802450:	10bfe004 	addi	r2,r2,-128
  802454:	10000f1e 	bne	r2,zero,802494 <tick+0x2158>
  802458:	d0a72f43 	ldbu	r2,-25411(gp)
  80245c:	10803fcc 	andi	r2,r2,255
  802460:	1080201c 	xori	r2,r2,128
  802464:	10bfe004 	addi	r2,r2,-128
  802468:	10000a1e 	bne	r2,zero,802494 <tick+0x2158>
  80246c:	d0a76d83 	ldbu	r2,-25162(gp)
  802470:	10803fcc 	andi	r2,r2,255
  802474:	1080201c 	xori	r2,r2,128
  802478:	10bfe004 	addi	r2,r2,-128
  80247c:	1000051e 	bne	r2,zero,802494 <tick+0x2158>
  802480:	d0a74643 	ldbu	r2,-25319(gp)
  802484:	10803fcc 	andi	r2,r2,255
  802488:	1080201c 	xori	r2,r2,128
  80248c:	10bfe004 	addi	r2,r2,-128
  802490:	10000226 	beq	r2,zero,80249c <tick+0x2160>
  802494:	00800044 	movi	r2,1
  802498:	00000106 	br	8024a0 <tick+0x2164>
  80249c:	0005883a 	mov	r2,zero
  8024a0:	d0a73d05 	stb	r2,-25356(gp)
      g119_e1 =(!((g4||g19||g37||g46||g55||g70||g78||g94||g86||g119_e1_fix)));
  8024a4:	d0a72c03 	ldbu	r2,-25424(gp)
  8024a8:	10803fcc 	andi	r2,r2,255
  8024ac:	1080201c 	xori	r2,r2,128
  8024b0:	10bfe004 	addi	r2,r2,-128
  8024b4:	10002f1e 	bne	r2,zero,802574 <tick+0x2238>
  8024b8:	d0a72c83 	ldbu	r2,-25422(gp)
  8024bc:	10803fcc 	andi	r2,r2,255
  8024c0:	1080201c 	xori	r2,r2,128
  8024c4:	10bfe004 	addi	r2,r2,-128
  8024c8:	10002a1e 	bne	r2,zero,802574 <tick+0x2238>
  8024cc:	d0a73cc3 	ldbu	r2,-25357(gp)
  8024d0:	10803fcc 	andi	r2,r2,255
  8024d4:	1080201c 	xori	r2,r2,128
  8024d8:	10bfe004 	addi	r2,r2,-128
  8024dc:	1000251e 	bne	r2,zero,802574 <tick+0x2238>
  8024e0:	d0a75c83 	ldbu	r2,-25230(gp)
  8024e4:	10803fcc 	andi	r2,r2,255
  8024e8:	1080201c 	xori	r2,r2,128
  8024ec:	10bfe004 	addi	r2,r2,-128
  8024f0:	1000201e 	bne	r2,zero,802574 <tick+0x2238>
  8024f4:	d0a72d43 	ldbu	r2,-25419(gp)
  8024f8:	10803fcc 	andi	r2,r2,255
  8024fc:	1080201c 	xori	r2,r2,128
  802500:	10bfe004 	addi	r2,r2,-128
  802504:	10001b1e 	bne	r2,zero,802574 <tick+0x2238>
  802508:	d0a76243 	ldbu	r2,-25207(gp)
  80250c:	10803fcc 	andi	r2,r2,255
  802510:	1080201c 	xori	r2,r2,128
  802514:	10bfe004 	addi	r2,r2,-128
  802518:	1000161e 	bne	r2,zero,802574 <tick+0x2238>
  80251c:	d0a75103 	ldbu	r2,-25276(gp)
  802520:	10803fcc 	andi	r2,r2,255
  802524:	1080201c 	xori	r2,r2,128
  802528:	10bfe004 	addi	r2,r2,-128
  80252c:	1000111e 	bne	r2,zero,802574 <tick+0x2238>
  802530:	d0a746c3 	ldbu	r2,-25317(gp)
  802534:	10803fcc 	andi	r2,r2,255
  802538:	1080201c 	xori	r2,r2,128
  80253c:	10bfe004 	addi	r2,r2,-128
  802540:	10000c1e 	bne	r2,zero,802574 <tick+0x2238>
  802544:	d0a75a43 	ldbu	r2,-25239(gp)
  802548:	10803fcc 	andi	r2,r2,255
  80254c:	1080201c 	xori	r2,r2,128
  802550:	10bfe004 	addi	r2,r2,-128
  802554:	1000071e 	bne	r2,zero,802574 <tick+0x2238>
  802558:	d0a73d03 	ldbu	r2,-25356(gp)
  80255c:	10803fcc 	andi	r2,r2,255
  802560:	1080201c 	xori	r2,r2,128
  802564:	10bfe004 	addi	r2,r2,-128
  802568:	1000021e 	bne	r2,zero,802574 <tick+0x2238>
  80256c:	00800044 	movi	r2,1
  802570:	00000106 	br	802578 <tick+0x223c>
  802574:	0005883a 	mov	r2,zero
  802578:	d0a74985 	stb	r2,-25306(gp)
      g123_e2 =(!(g122));
  80257c:	d0a75183 	ldbu	r2,-25274(gp)
  802580:	10803fcc 	andi	r2,r2,255
  802584:	1080201c 	xori	r2,r2,128
  802588:	10bfe004 	addi	r2,r2,-128
  80258c:	1005003a 	cmpeq	r2,r2,zero
  802590:	d0a75305 	stb	r2,-25268(gp)
   }
   PRE_g3 = g3;
  802594:	d0a72f03 	ldbu	r2,-25412(gp)
  802598:	d0a73305 	stb	r2,-25396(gp)
   PRE_g5 = g5;
  80259c:	d0a74683 	ldbu	r2,-25318(gp)
  8025a0:	d0a77145 	stb	r2,-25147(gp)
   PRE_g7 = g7;
  8025a4:	d0a74943 	ldbu	r2,-25307(gp)
  8025a8:	d0a77585 	stb	r2,-25130(gp)
   PRE_g10 = g10;
  8025ac:	d0a77603 	ldbu	r2,-25128(gp)
  8025b0:	d0a740c5 	stb	r2,-25341(gp)
   PRE_g18 = g18;
  8025b4:	d0a74003 	ldbu	r2,-25344(gp)
  8025b8:	d0a75085 	stb	r2,-25278(gp)
   PRE_g20 = g20;
  8025bc:	d0a756c3 	ldbu	r2,-25253(gp)
  8025c0:	d0a73685 	stb	r2,-25382(gp)
   PRE_g22 = g22;
  8025c4:	d0a76c83 	ldbu	r2,-25166(gp)
  8025c8:	d0a75245 	stb	r2,-25271(gp)
   PRE_g27 = g27;
  8025cc:	d0a72e03 	ldbu	r2,-25416(gp)
  8025d0:	d0a72f85 	stb	r2,-25410(gp)
   PRE_g31 = g31;
  8025d4:	d0a73c83 	ldbu	r2,-25358(gp)
  8025d8:	d0a75ec5 	stb	r2,-25221(gp)
   PRE_g36 = g36;
  8025dc:	d0a75c03 	ldbu	r2,-25232(gp)
  8025e0:	d0a74ec5 	stb	r2,-25285(gp)
   PRE_g39 = g39;
  8025e4:	d0a77343 	ldbu	r2,-25139(gp)
  8025e8:	d0a733c5 	stb	r2,-25393(gp)
   PRE_g45 = g45;
  8025ec:	d0a76e43 	ldbu	r2,-25159(gp)
  8025f0:	d0a77105 	stb	r2,-25148(gp)
   PRE_g48 = g48;
  8025f4:	d0a741c3 	ldbu	r2,-25337(gp)
  8025f8:	d0a75fc5 	stb	r2,-25217(gp)
   PRE_g54 = g54;
  8025fc:	d0a74c83 	ldbu	r2,-25294(gp)
  802600:	d0a75605 	stb	r2,-25256(gp)
   PRE_g56 = g56;
  802604:	d0a75003 	ldbu	r2,-25280(gp)
  802608:	d0a73485 	stb	r2,-25390(gp)
   PRE_g58 = g58;
  80260c:	d0a76a03 	ldbu	r2,-25176(gp)
  802610:	d0a76905 	stb	r2,-25180(gp)
   PRE_g61 = g61;
  802614:	d0a73743 	ldbu	r2,-25379(gp)
  802618:	d0a76045 	stb	r2,-25215(gp)
   PRE_g69 = g69;
  80261c:	d0a776c3 	ldbu	r2,-25125(gp)
  802620:	d0a73885 	stb	r2,-25374(gp)
   PRE_g71 = g71;
  802624:	d0a73783 	ldbu	r2,-25378(gp)
  802628:	d0a74e45 	stb	r2,-25287(gp)
   PRE_g77 = g77;
  80262c:	d0a76d43 	ldbu	r2,-25163(gp)
  802630:	d0a73a45 	stb	r2,-25367(gp)
   PRE_g80 = g80;
  802634:	d0a74a03 	ldbu	r2,-25304(gp)
  802638:	d0a74a45 	stb	r2,-25303(gp)
   PRE_g82 = g82;
  80263c:	d0a73843 	ldbu	r2,-25375(gp)
  802640:	d0a77045 	stb	r2,-25151(gp)
   PRE_g85 = g85;
  802644:	d0a73003 	ldbu	r2,-25408(gp)
  802648:	d0a73e85 	stb	r2,-25350(gp)
   PRE_g93 = g93;
  80264c:	d0a75983 	ldbu	r2,-25242(gp)
  802650:	d0a76b45 	stb	r2,-25171(gp)
   PRE_g95 = g95;
  802654:	d0a75cc3 	ldbu	r2,-25229(gp)
  802658:	d0a72bc5 	stb	r2,-25425(gp)
   PRE_g100 = g100;
  80265c:	d0a74ac3 	ldbu	r2,-25301(gp)
  802660:	d0a767c5 	stb	r2,-25185(gp)
   PRE_g102 = g102;
  802664:	d0a73343 	ldbu	r2,-25395(gp)
  802668:	d0a72d05 	stb	r2,-25420(gp)
   PRE_g104 = g104;
  80266c:	d0a76083 	ldbu	r2,-25214(gp)
  802670:	d0a74085 	stb	r2,-25342(gp)
   PRE_g107 = g107;
  802674:	d0a75e83 	ldbu	r2,-25222(gp)
  802678:	d0a75745 	stb	r2,-25251(gp)
   PRE_g113 = g113;
  80267c:	d0a75f03 	ldbu	r2,-25220(gp)
  802680:	d0a75b05 	stb	r2,-25236(gp)
   PRE_g115 = g115;
  802684:	d0a73383 	ldbu	r2,-25394(gp)
  802688:	d0a76105 	stb	r2,-25212(gp)
   PRE_g121 = g121;
  80268c:	d0a77183 	ldbu	r2,-25146(gp)
  802690:	d0a73405 	stb	r2,-25392(gp)
   _PRE_GO = _GO;
  802694:	d0a75483 	ldbu	r2,-25262(gp)
  802698:	10803fcc 	andi	r2,r2,255
  80269c:	1080201c 	xori	r2,r2,128
  8026a0:	10bfe004 	addi	r2,r2,-128
  8026a4:	d0a73215 	stw	r2,-25400(gp)
   return;
  8026a8:	0001883a 	nop
}
  8026ac:	e037883a 	mov	sp,fp
  8026b0:	df000017 	ldw	fp,0(sp)
  8026b4:	dec00104 	addi	sp,sp,4
  8026b8:	f800283a 	ret

008026bc <timer_check>:
 */
//The main traffic light controller
#include "main.h"

//checks timer start and stop signals and treats them accordingly
void timer_check(){
  8026bc:	defffd04 	addi	sp,sp,-12
  8026c0:	dfc00215 	stw	ra,8(sp)
  8026c4:	df000115 	stw	fp,4(sp)
  8026c8:	df000104 	addi	fp,sp,4
	//no context needed
	void* context = 0;
  8026cc:	e03fff15 	stw	zero,-4(fp)

	//start timers if timer start signals are detected
	if (AEIStart){
  8026d0:	d0a76dc3 	ldbu	r2,-25161(gp)
  8026d4:	10803fcc 	andi	r2,r2,255
  8026d8:	1080201c 	xori	r2,r2,128
  8026dc:	10bfe004 	addi	r2,r2,-128
  8026e0:	10000e26 	beq	r2,zero,80271c <timer_check+0x60>
		if (AEITimerStarted == 0){
  8026e4:	d0a77217 	ldw	r2,-25144(gp)
  8026e8:	10000c1e 	bne	r2,zero,80271c <timer_check+0x60>
			alt_alarm_start(&AEITimer, AEI_VALUE, AEITimerISR, context);
  8026ec:	e1ffff17 	ldw	r7,-4(fp)
  8026f0:	01802034 	movhi	r6,128
  8026f4:	318b2904 	addi	r6,r6,11428
  8026f8:	0140c804 	movi	r5,800
  8026fc:	01002074 	movhi	r4,129
  802700:	21383b04 	addi	r4,r4,-7956
  802704:	0805f640 	call	805f64 <alt_alarm_start>
			AEITimerStarted = 1;
  802708:	00800044 	movi	r2,1
  80270c:	d0a77215 	stw	r2,-25144(gp)
			printf("AEI Started\r\n");
  802710:	01002074 	movhi	r4,129
  802714:	21288204 	addi	r4,r4,-24056
  802718:	080325c0 	call	80325c <puts>
		}
	}
	if (AVIStart){
  80271c:	d0a75903 	ldbu	r2,-25244(gp)
  802720:	10803fcc 	andi	r2,r2,255
  802724:	1080201c 	xori	r2,r2,128
  802728:	10bfe004 	addi	r2,r2,-128
  80272c:	10000e26 	beq	r2,zero,802768 <timer_check+0xac>
		if (AVITimerStarted == 0){
  802730:	d0a75517 	ldw	r2,-25260(gp)
  802734:	10000c1e 	bne	r2,zero,802768 <timer_check+0xac>
			alt_alarm_start(&AVITimer, AVI_VALUE, AVITimerISR, context);
  802738:	e1ffff17 	ldw	r7,-4(fp)
  80273c:	01802034 	movhi	r6,128
  802740:	318b4104 	addi	r6,r6,11524
  802744:	01404b04 	movi	r5,300
  802748:	01002074 	movhi	r4,129
  80274c:	21388904 	addi	r4,r4,-7644
  802750:	0805f640 	call	805f64 <alt_alarm_start>
			AVITimerStarted = 1;
  802754:	00800044 	movi	r2,1
  802758:	d0a75515 	stw	r2,-25260(gp)
			printf("AVI Started\r\n");
  80275c:	01002074 	movhi	r4,129
  802760:	21288604 	addi	r4,r4,-24040
  802764:	080325c0 	call	80325c <puts>
		}
	}
	if (LRIStart){
  802768:	d0a74143 	ldbu	r2,-25339(gp)
  80276c:	10803fcc 	andi	r2,r2,255
  802770:	1080201c 	xori	r2,r2,128
  802774:	10bfe004 	addi	r2,r2,-128
  802778:	10000e26 	beq	r2,zero,8027b4 <timer_check+0xf8>
		if (LRITimerStarted == 0){
  80277c:	d0a74b17 	ldw	r2,-25300(gp)
  802780:	10000c1e 	bne	r2,zero,8027b4 <timer_check+0xf8>
			alt_alarm_start(&LRITimer, LRI_VALUE, LRITimerISR, context);
  802784:	e1ffff17 	ldw	r7,-4(fp)
  802788:	01802034 	movhi	r6,128
  80278c:	318b5904 	addi	r6,r6,11620
  802790:	0140ed84 	movi	r5,950
  802794:	01002074 	movhi	r4,129
  802798:	21383504 	addi	r4,r4,-7980
  80279c:	0805f640 	call	805f64 <alt_alarm_start>
			LRITimerStarted = 1;
  8027a0:	00800044 	movi	r2,1
  8027a4:	d0a74b15 	stw	r2,-25300(gp)
			printf("LRI Started\r\n");
  8027a8:	01002074 	movhi	r4,129
  8027ac:	21288a04 	addi	r4,r4,-24024
  8027b0:	080325c0 	call	80325c <puts>
		}
	}
	if (URIStart){
  8027b4:	d0a779c3 	ldbu	r2,-25113(gp)
  8027b8:	10803fcc 	andi	r2,r2,255
  8027bc:	1080201c 	xori	r2,r2,128
  8027c0:	10bfe004 	addi	r2,r2,-128
  8027c4:	10000e26 	beq	r2,zero,802800 <timer_check+0x144>
		if (URITimerStarted == 0){
  8027c8:	d0a77817 	ldw	r2,-25120(gp)
  8027cc:	10000c1e 	bne	r2,zero,802800 <timer_check+0x144>
			alt_alarm_start(&URITimer, URI_VALUE, URITimerISR, context);
  8027d0:	e1ffff17 	ldw	r7,-4(fp)
  8027d4:	01802034 	movhi	r6,128
  8027d8:	318b7104 	addi	r6,r6,11716
  8027dc:	0140e104 	movi	r5,900
  8027e0:	01002074 	movhi	r4,129
  8027e4:	21385f04 	addi	r4,r4,-7812
  8027e8:	0805f640 	call	805f64 <alt_alarm_start>
			URITimerStarted = 1;
  8027ec:	00800044 	movi	r2,1
  8027f0:	d0a77815 	stw	r2,-25120(gp)
			printf("URI Started\r\n");
  8027f4:	01002074 	movhi	r4,129
  8027f8:	21288e04 	addi	r4,r4,-24008
  8027fc:	080325c0 	call	80325c <puts>
		}
	}
	if (VRPStart){
  802800:	d0a74f03 	ldbu	r2,-25284(gp)
  802804:	10803fcc 	andi	r2,r2,255
  802808:	1080201c 	xori	r2,r2,128
  80280c:	10bfe004 	addi	r2,r2,-128
  802810:	10000e26 	beq	r2,zero,80284c <timer_check+0x190>
		if (VRPTimerStarted == 0){
  802814:	d0a73f17 	ldw	r2,-25348(gp)
  802818:	10000c1e 	bne	r2,zero,80284c <timer_check+0x190>
			alt_alarm_start(&VRPTimer, VRP_VALUE, VRPTimerISR, context);
  80281c:	e1ffff17 	ldw	r7,-4(fp)
  802820:	01802034 	movhi	r6,128
  802824:	318b8904 	addi	r6,r6,11812
  802828:	01402584 	movi	r5,150
  80282c:	01002074 	movhi	r4,129
  802830:	21385304 	addi	r4,r4,-7860
  802834:	0805f640 	call	805f64 <alt_alarm_start>
			VRPTimerStarted = 1;
  802838:	00800044 	movi	r2,1
  80283c:	d0a73f15 	stw	r2,-25348(gp)
			printf("VRP Started\r\n");
  802840:	01002074 	movhi	r4,129
  802844:	21289204 	addi	r4,r4,-23992
  802848:	080325c0 	call	80325c <puts>
		}
	}
	if (PVARPStart){
  80284c:	d0a749c3 	ldbu	r2,-25305(gp)
  802850:	10803fcc 	andi	r2,r2,255
  802854:	1080201c 	xori	r2,r2,128
  802858:	10bfe004 	addi	r2,r2,-128
  80285c:	10000e26 	beq	r2,zero,802898 <timer_check+0x1dc>
		if (PVARPTimerStarted == 0){
  802860:	d0a74817 	ldw	r2,-25312(gp)
  802864:	10000c1e 	bne	r2,zero,802898 <timer_check+0x1dc>
			alt_alarm_start(&PVARPTimer, PVARP_VALUE, PVARPTimerISR, context);
  802868:	e1ffff17 	ldw	r7,-4(fp)
  80286c:	01802034 	movhi	r6,128
  802870:	318ba104 	addi	r6,r6,11908
  802874:	01400c84 	movi	r5,50
  802878:	01002074 	movhi	r4,129
  80287c:	21384704 	addi	r4,r4,-7908
  802880:	0805f640 	call	805f64 <alt_alarm_start>
			PVARPTimerStarted = 1;
  802884:	00800044 	movi	r2,1
  802888:	d0a74815 	stw	r2,-25312(gp)
			printf("PVARP Started\r\n");
  80288c:	01002074 	movhi	r4,129
  802890:	21289604 	addi	r4,r4,-23976
  802894:	080325c0 	call	80325c <puts>
		}
	}

	//stop timers if timer stop signals are detected
	if (AEIStop){
  802898:	d0a735c3 	ldbu	r2,-25385(gp)
  80289c:	10803fcc 	andi	r2,r2,255
  8028a0:	1080201c 	xori	r2,r2,128
  8028a4:	10bfe004 	addi	r2,r2,-128
  8028a8:	10000a26 	beq	r2,zero,8028d4 <timer_check+0x218>
		if (AEITimerStarted == 1){
  8028ac:	d0a77217 	ldw	r2,-25144(gp)
  8028b0:	10800058 	cmpnei	r2,r2,1
  8028b4:	1000071e 	bne	r2,zero,8028d4 <timer_check+0x218>
			alt_alarm_stop(&AEITimer);
  8028b8:	01002074 	movhi	r4,129
  8028bc:	21383b04 	addi	r4,r4,-7956
  8028c0:	0806c740 	call	806c74 <alt_alarm_stop>
			AEITimerStarted = 0;
  8028c4:	d0277215 	stw	zero,-25144(gp)
			printf("AEi Stopped\r\n");
  8028c8:	01002074 	movhi	r4,129
  8028cc:	21289a04 	addi	r4,r4,-23960
  8028d0:	080325c0 	call	80325c <puts>
		}
	}
	if (AVIStop){
  8028d4:	d0a73ec3 	ldbu	r2,-25349(gp)
  8028d8:	10803fcc 	andi	r2,r2,255
  8028dc:	1080201c 	xori	r2,r2,128
  8028e0:	10bfe004 	addi	r2,r2,-128
  8028e4:	10000a26 	beq	r2,zero,802910 <timer_check+0x254>
		if (AVITimerStarted == 1){
  8028e8:	d0a75517 	ldw	r2,-25260(gp)
  8028ec:	10800058 	cmpnei	r2,r2,1
  8028f0:	1000071e 	bne	r2,zero,802910 <timer_check+0x254>
			alt_alarm_stop(&AVITimer);
  8028f4:	01002074 	movhi	r4,129
  8028f8:	21388904 	addi	r4,r4,-7644
  8028fc:	0806c740 	call	806c74 <alt_alarm_stop>
			AVITimerStarted = 0;
  802900:	d0275515 	stw	zero,-25260(gp)
			printf("AVI Stopped\r\n");
  802904:	01002074 	movhi	r4,129
  802908:	21289e04 	addi	r4,r4,-23944
  80290c:	080325c0 	call	80325c <puts>
		}
	}
	if (LRIStop){
  802910:	d0a76703 	ldbu	r2,-25188(gp)
  802914:	10803fcc 	andi	r2,r2,255
  802918:	1080201c 	xori	r2,r2,128
  80291c:	10bfe004 	addi	r2,r2,-128
  802920:	10000a26 	beq	r2,zero,80294c <timer_check+0x290>
		if (LRITimerStarted == 1){
  802924:	d0a74b17 	ldw	r2,-25300(gp)
  802928:	10800058 	cmpnei	r2,r2,1
  80292c:	1000071e 	bne	r2,zero,80294c <timer_check+0x290>
			alt_alarm_stop(&LRITimer);
  802930:	01002074 	movhi	r4,129
  802934:	21383504 	addi	r4,r4,-7980
  802938:	0806c740 	call	806c74 <alt_alarm_stop>
			LRITimerStarted = 0;
  80293c:	d0274b15 	stw	zero,-25300(gp)
			printf("LRI Stopped\r\n");
  802940:	01002074 	movhi	r4,129
  802944:	2128a204 	addi	r4,r4,-23928
  802948:	080325c0 	call	80325c <puts>
		}
	}
	if (URIStop){
  80294c:	d0a753c3 	ldbu	r2,-25265(gp)
  802950:	10803fcc 	andi	r2,r2,255
  802954:	1080201c 	xori	r2,r2,128
  802958:	10bfe004 	addi	r2,r2,-128
  80295c:	10000a26 	beq	r2,zero,802988 <timer_check+0x2cc>
		if (URITimerStarted == 1){
  802960:	d0a77817 	ldw	r2,-25120(gp)
  802964:	10800058 	cmpnei	r2,r2,1
  802968:	1000071e 	bne	r2,zero,802988 <timer_check+0x2cc>
			alt_alarm_stop(&URITimer);
  80296c:	01002074 	movhi	r4,129
  802970:	21385f04 	addi	r4,r4,-7812
  802974:	0806c740 	call	806c74 <alt_alarm_stop>
			URITimerStarted = 0;
  802978:	d0277815 	stw	zero,-25120(gp)
			printf("URI Stopped\r\n");
  80297c:	01002074 	movhi	r4,129
  802980:	2128a604 	addi	r4,r4,-23912
  802984:	080325c0 	call	80325c <puts>
		}
	}
	if (VRPStop){
  802988:	d0a75643 	ldbu	r2,-25255(gp)
  80298c:	10803fcc 	andi	r2,r2,255
  802990:	1080201c 	xori	r2,r2,128
  802994:	10bfe004 	addi	r2,r2,-128
  802998:	10000a26 	beq	r2,zero,8029c4 <timer_check+0x308>
		if (VRPTimerStarted == 1){
  80299c:	d0a73f17 	ldw	r2,-25348(gp)
  8029a0:	10800058 	cmpnei	r2,r2,1
  8029a4:	1000071e 	bne	r2,zero,8029c4 <timer_check+0x308>
			alt_alarm_stop(&VRPTimer);
  8029a8:	01002074 	movhi	r4,129
  8029ac:	21385304 	addi	r4,r4,-7860
  8029b0:	0806c740 	call	806c74 <alt_alarm_stop>
			VRPTimerStarted = 0;
  8029b4:	d0273f15 	stw	zero,-25348(gp)
			printf("VRP Stopped\r\n");
  8029b8:	01002074 	movhi	r4,129
  8029bc:	2128aa04 	addi	r4,r4,-23896
  8029c0:	080325c0 	call	80325c <puts>
		}
	}
	if (PVARPStop){
  8029c4:	d0a76b83 	ldbu	r2,-25170(gp)
  8029c8:	10803fcc 	andi	r2,r2,255
  8029cc:	1080201c 	xori	r2,r2,128
  8029d0:	10bfe004 	addi	r2,r2,-128
  8029d4:	10000a26 	beq	r2,zero,802a00 <timer_check+0x344>
		if (PVARPTimerStarted == 1){
  8029d8:	d0a74817 	ldw	r2,-25312(gp)
  8029dc:	10800058 	cmpnei	r2,r2,1
  8029e0:	1000071e 	bne	r2,zero,802a00 <timer_check+0x344>
			alt_alarm_stop(&PVARPTimer);
  8029e4:	01002074 	movhi	r4,129
  8029e8:	21384704 	addi	r4,r4,-7908
  8029ec:	0806c740 	call	806c74 <alt_alarm_stop>
			PVARPTimerStarted = 0;
  8029f0:	d0274815 	stw	zero,-25312(gp)
			printf("PVARP Stopped\r\n");
  8029f4:	01002074 	movhi	r4,129
  8029f8:	2128ae04 	addi	r4,r4,-23880
  8029fc:	080325c0 	call	80325c <puts>
		}
	}
}
  802a00:	0001883a 	nop
  802a04:	e037883a 	mov	sp,fp
  802a08:	dfc00117 	ldw	ra,4(sp)
  802a0c:	df000017 	ldw	fp,0(sp)
  802a10:	dec00204 	addi	sp,sp,8
  802a14:	f800283a 	ret

00802a18 <SET_output>:

//handles the outputs VPace and APace
void SET_output(){
  802a18:	defffd04 	addi	sp,sp,-12
  802a1c:	dfc00215 	stw	ra,8(sp)
  802a20:	df000115 	stw	fp,4(sp)
  802a24:	df000104 	addi	fp,sp,4
	//map VPace and APace outputs to LEDs 0 and 1 respectively
	//also sends APace and VPace over UART
	void* context = 0;
  802a28:	e03fff15 	stw	zero,-4(fp)
	if (APace){
  802a2c:	d0a72b83 	ldbu	r2,-25426(gp)
  802a30:	10803fcc 	andi	r2,r2,255
  802a34:	1080201c 	xori	r2,r2,128
  802a38:	10bfe004 	addi	r2,r2,-128
  802a3c:	10001726 	beq	r2,zero,802a9c <SET_output+0x84>
		IOWR_ALTERA_AVALON_PIO_DATA(LEDS_GREEN_BASE, 0b01);
  802a40:	00c00044 	movi	r3,1
  802a44:	00804434 	movhi	r2,272
  802a48:	10841c04 	addi	r2,r2,4208
  802a4c:	10c00035 	stwio	r3,0(r2)
		write(uart,charA,2);
  802a50:	d0a76f17 	ldw	r2,-25156(gp)
  802a54:	01800084 	movi	r6,2
  802a58:	d1600004 	addi	r5,gp,-32768
  802a5c:	1009883a 	mov	r4,r2
  802a60:	0806e540 	call	806e54 <write>
		if (APLEDTimerStarted == 0){
  802a64:	d0a73b17 	ldw	r2,-25364(gp)
  802a68:	10000c1e 	bne	r2,zero,802a9c <SET_output+0x84>
			alt_alarm_start(&APLEDTimer, LED_TIMEOUT, APLEDTimerISR, context);
  802a6c:	e1ffff17 	ldw	r7,-4(fp)
  802a70:	01802034 	movhi	r6,128
  802a74:	318c0904 	addi	r6,r6,12324
  802a78:	01403204 	movi	r5,200
  802a7c:	01002074 	movhi	r4,129
  802a80:	21387d04 	addi	r4,r4,-7692
  802a84:	0805f640 	call	805f64 <alt_alarm_start>
			APLEDTimerStarted = 1;
  802a88:	00800044 	movi	r2,1
  802a8c:	d0a73b15 	stw	r2,-25364(gp)
			printf("AP LED timer Started\r\n");
  802a90:	01002074 	movhi	r4,129
  802a94:	2128b204 	addi	r4,r4,-23864
  802a98:	080325c0 	call	80325c <puts>
		}
	}
	if (VPace){
  802a9c:	d0a77303 	ldbu	r2,-25140(gp)
  802aa0:	10803fcc 	andi	r2,r2,255
  802aa4:	1080201c 	xori	r2,r2,128
  802aa8:	10bfe004 	addi	r2,r2,-128
  802aac:	10001726 	beq	r2,zero,802b0c <SET_output+0xf4>
		IOWR_ALTERA_AVALON_PIO_DATA(LEDS_GREEN_BASE, 0b10);
  802ab0:	00c00084 	movi	r3,2
  802ab4:	00804434 	movhi	r2,272
  802ab8:	10841c04 	addi	r2,r2,4208
  802abc:	10c00035 	stwio	r3,0(r2)
		write(uart,charV,2);
  802ac0:	d0a76f17 	ldw	r2,-25156(gp)
  802ac4:	01800084 	movi	r6,2
  802ac8:	d1600104 	addi	r5,gp,-32764
  802acc:	1009883a 	mov	r4,r2
  802ad0:	0806e540 	call	806e54 <write>
		if (VPLEDTimerStarted == 0){
  802ad4:	d0a74317 	ldw	r2,-25332(gp)
  802ad8:	10000c1e 	bne	r2,zero,802b0c <SET_output+0xf4>
			alt_alarm_start(&VPLEDTimer, LED_TIMEOUT, VPLEDTimerISR, context);
  802adc:	e1ffff17 	ldw	r7,-4(fp)
  802ae0:	01802034 	movhi	r6,128
  802ae4:	318c1c04 	addi	r6,r6,12400
  802ae8:	01403204 	movi	r5,200
  802aec:	01002074 	movhi	r4,129
  802af0:	21387104 	addi	r4,r4,-7740
  802af4:	0805f640 	call	805f64 <alt_alarm_start>
			VPLEDTimerStarted = 1;
  802af8:	00800044 	movi	r2,1
  802afc:	d0a74315 	stw	r2,-25332(gp)
			printf("VP LED Timer Started\r\n");
  802b00:	01002074 	movhi	r4,129
  802b04:	2128b804 	addi	r4,r4,-23840
  802b08:	080325c0 	call	80325c <puts>
		}
	}
}
  802b0c:	0001883a 	nop
  802b10:	e037883a 	mov	sp,fp
  802b14:	dfc00117 	ldw	ra,4(sp)
  802b18:	df000017 	ldw	fp,0(sp)
  802b1c:	dec00204 	addi	sp,sp,8
  802b20:	f800283a 	ret

00802b24 <button_interrupt>:

//button interrupt function for detecting ASense and VSense for mode 1
void button_interrupt(void* context, alt_u32 id) {
  802b24:	defffb04 	addi	sp,sp,-20
  802b28:	dfc00415 	stw	ra,16(sp)
  802b2c:	df000315 	stw	fp,12(sp)
  802b30:	df000304 	addi	fp,sp,12
  802b34:	e13ffe15 	stw	r4,-8(fp)
  802b38:	e17fff15 	stw	r5,-4(fp)
	unsigned int edgeCapture = IORD_ALTERA_AVALON_PIO_EDGE_CAP(BUTTONS_BASE);
  802b3c:	00804434 	movhi	r2,272
  802b40:	10842b04 	addi	r2,r2,4268
  802b44:	10800037 	ldwio	r2,0(r2)
  802b48:	e0bffd15 	stw	r2,-12(fp)

	//check edge capture registers for which button was pressed
	if (edgeCapture & (1<<0)){
  802b4c:	e0bffd17 	ldw	r2,-12(fp)
  802b50:	1080004c 	andi	r2,r2,1
  802b54:	10000c26 	beq	r2,zero,802b88 <button_interrupt+0x64>
		VSense = 1;
  802b58:	00800044 	movi	r2,1
  802b5c:	d0a75045 	stb	r2,-25279(gp)
		alt_alarm_start(&VSenseTimerReset,BUFFER,VSenseTimerISRReset,0x0);
  802b60:	000f883a 	mov	r7,zero
  802b64:	01802034 	movhi	r6,128
  802b68:	318bff04 	addi	r6,r6,12284
  802b6c:	01400044 	movi	r5,1
  802b70:	01002074 	movhi	r4,129
  802b74:	21382f04 	addi	r4,r4,-8004
  802b78:	0805f640 	call	805f64 <alt_alarm_start>
		printf("VSense\r\n");
  802b7c:	01002074 	movhi	r4,129
  802b80:	2128be04 	addi	r4,r4,-23816
  802b84:	080325c0 	call	80325c <puts>
	}
	if (edgeCapture & (1<<1)){
  802b88:	e0bffd17 	ldw	r2,-12(fp)
  802b8c:	1080008c 	andi	r2,r2,2
  802b90:	10000c26 	beq	r2,zero,802bc4 <button_interrupt+0xa0>
		ASense = 1;
  802b94:	00800044 	movi	r2,1
  802b98:	d0a74045 	stb	r2,-25343(gp)
		alt_alarm_start(&ASenseTimerReset,BUFFER,ASenseTimerISRReset,0x0);
  802b9c:	000f883a 	mov	r7,zero
  802ba0:	01802034 	movhi	r6,128
  802ba4:	318bf504 	addi	r6,r6,12244
  802ba8:	01400044 	movi	r5,1
  802bac:	01002074 	movhi	r4,129
  802bb0:	21386b04 	addi	r4,r4,-7764
  802bb4:	0805f640 	call	805f64 <alt_alarm_start>
		printf("ASense\r\n");
  802bb8:	01002074 	movhi	r4,129
  802bbc:	2128c004 	addi	r4,r4,-23808
  802bc0:	080325c0 	call	80325c <puts>
	}
	//clear edge capture register for next interrupt
	IOWR_ALTERA_AVALON_PIO_EDGE_CAP(BUTTONS_BASE, 0);
  802bc4:	0007883a 	mov	r3,zero
  802bc8:	00804434 	movhi	r2,272
  802bcc:	10842b04 	addi	r2,r2,4268
  802bd0:	10c00035 	stwio	r3,0(r2)
}
  802bd4:	0001883a 	nop
  802bd8:	e037883a 	mov	sp,fp
  802bdc:	dfc00117 	ldw	ra,4(sp)
  802be0:	df000017 	ldw	fp,0(sp)
  802be4:	dec00204 	addi	sp,sp,8
  802be8:	f800283a 	ret

00802bec <main>:

int main(){
  802bec:	defffc04 	addi	sp,sp,-16
  802bf0:	dfc00315 	stw	ra,12(sp)
  802bf4:	df000215 	stw	fp,8(sp)
  802bf8:	df000204 	addi	fp,sp,8
	void* context = 0;
  802bfc:	e03ffe15 	stw	zero,-8(fp)
	//read switch value
	unsigned int switch_value = 0;
  802c00:	e03fff15 	stw	zero,-4(fp)
	//clear edge capture register
	IOWR_ALTERA_AVALON_PIO_EDGE_CAP(BUTTONS_BASE, 0);
  802c04:	0007883a 	mov	r3,zero
  802c08:	00804434 	movhi	r2,272
  802c0c:	10842b04 	addi	r2,r2,4268
  802c10:	10c00035 	stwio	r3,0(r2)
	//enable interrupts for all buttons
	IOWR_ALTERA_AVALON_PIO_IRQ_MASK(BUTTONS_BASE, 0x7);
  802c14:	00c001c4 	movi	r3,7
  802c18:	00804434 	movhi	r2,272
  802c1c:	10842a04 	addi	r2,r2,4264
  802c20:	10c00035 	stwio	r3,0(r2)
	//register the button interrupt ISR
	alt_irq_register(BUTTONS_IRQ, context, button_interrupt);
  802c24:	01802034 	movhi	r6,128
  802c28:	318ac904 	addi	r6,r6,11044
  802c2c:	e17ffe17 	ldw	r5,-8(fp)
  802c30:	01000104 	movi	r4,4
  802c34:	08062b40 	call	8062b4 <alt_irq_register>

	//open non blocking UART
	uart = open(UART_NAME,(O_NONBLOCK | O_RDWR));
  802c38:	01500084 	movi	r5,16386
  802c3c:	01002074 	movhi	r4,129
  802c40:	2128c204 	addi	r4,r4,-23800
  802c44:	08068d40 	call	8068d4 <open>
  802c48:	d0a76f15 	stw	r2,-25156(gp)

	//reset signals
	reset();
  802c4c:	08002900 	call	800290 <reset>
	while(1){
		switch_value = IORD_ALTERA_AVALON_PIO_DATA(SWITCHES_BASE);
  802c50:	00804434 	movhi	r2,272
  802c54:	10842404 	addi	r2,r2,4240
  802c58:	10800037 	ldwio	r2,0(r2)
  802c5c:	e0bfff15 	stw	r2,-4(fp)
		//if UART switch (switch 0) is on, trigger mode 2 inputs via UART
		if (switch_value & (1<<0)){
  802c60:	e0bfff17 	ldw	r2,-4(fp)
  802c64:	1080004c 	andi	r2,r2,1
  802c68:	10000626 	beq	r2,zero,802c84 <main+0x98>
			checkuart();//check UART for inputs
  802c6c:	08030bc0 	call	8030bc <checkuart>
			IOWR_ALTERA_AVALON_PIO_IRQ_MASK(BUTTONS_BASE, 0x0);//turn button interrupts off
  802c70:	0007883a 	mov	r3,zero
  802c74:	00804434 	movhi	r2,272
  802c78:	10842a04 	addi	r2,r2,4264
  802c7c:	10c00035 	stwio	r3,0(r2)
  802c80:	00000406 	br	802c94 <main+0xa8>
		}
		else{
			IOWR_ALTERA_AVALON_PIO_IRQ_MASK(BUTTONS_BASE, 0x7);//turn button interrupts on
  802c84:	00c001c4 	movi	r3,7
  802c88:	00804434 	movhi	r2,272
  802c8c:	10842a04 	addi	r2,r2,4264
  802c90:	10c00035 	stwio	r3,0(r2)
		}
		//tick function
		tick();
  802c94:	080033c0 	call	80033c <tick>
		//check timers for starting or stopping signals
		timer_check();
  802c98:	08026bc0 	call	8026bc <timer_check>
		//map VPace and APace outputs to LEDs 0 and 1 respectively
		SET_output();
  802c9c:	0802a180 	call	802a18 <SET_output>
	}
  802ca0:	003feb06 	br	802c50 <__alt_mem_onchip_mem+0xff782c50>

00802ca4 <AEITimerISR>:
 */

#include "timers.h"

//these are all mappings for the timers expiring
alt_u32 AEITimerISR(void* context){
  802ca4:	defffd04 	addi	sp,sp,-12
  802ca8:	dfc00215 	stw	ra,8(sp)
  802cac:	df000115 	stw	fp,4(sp)
  802cb0:	df000104 	addi	fp,sp,4
  802cb4:	e13fff15 	stw	r4,-4(fp)
	AEIExpired = 1;
  802cb8:	00800044 	movi	r2,1
  802cbc:	d0a76bc5 	stb	r2,-25169(gp)
	AEITimerStarted = 0;
  802cc0:	d0277215 	stw	zero,-25144(gp)
	alt_alarm_start(&AEITimerReset, BUFFER, AEITimerISRReset, 0x0);
  802cc4:	000f883a 	mov	r7,zero
  802cc8:	01802034 	movhi	r6,128
  802ccc:	318bb904 	addi	r6,r6,12004
  802cd0:	01400044 	movi	r5,1
  802cd4:	01002074 	movhi	r4,129
  802cd8:	21387704 	addi	r4,r4,-7716
  802cdc:	0805f640 	call	805f64 <alt_alarm_start>
	printf("AEIExpired\r\n");
  802ce0:	01002074 	movhi	r4,129
  802ce4:	2128c504 	addi	r4,r4,-23788
  802ce8:	080325c0 	call	80325c <puts>
	return 0;
  802cec:	0005883a 	mov	r2,zero
}
  802cf0:	e037883a 	mov	sp,fp
  802cf4:	dfc00117 	ldw	ra,4(sp)
  802cf8:	df000017 	ldw	fp,0(sp)
  802cfc:	dec00204 	addi	sp,sp,8
  802d00:	f800283a 	ret

00802d04 <AVITimerISR>:

alt_u32 AVITimerISR(void* context){
  802d04:	defffd04 	addi	sp,sp,-12
  802d08:	dfc00215 	stw	ra,8(sp)
  802d0c:	df000115 	stw	fp,4(sp)
  802d10:	df000104 	addi	fp,sp,4
  802d14:	e13fff15 	stw	r4,-4(fp)
	AVIExpired = 1;
  802d18:	00800044 	movi	r2,1
  802d1c:	d0a74dc5 	stb	r2,-25289(gp)
	AVITimerStarted = 0;
  802d20:	d0275515 	stw	zero,-25260(gp)
	alt_alarm_start(&AVITimerReset, BUFFER, AVITimerISRReset, 0x0);
  802d24:	000f883a 	mov	r7,zero
  802d28:	01802034 	movhi	r6,128
  802d2c:	318bc304 	addi	r6,r6,12044
  802d30:	01400044 	movi	r5,1
  802d34:	01002074 	movhi	r4,129
  802d38:	21386504 	addi	r4,r4,-7788
  802d3c:	0805f640 	call	805f64 <alt_alarm_start>
	printf("AVIExpired\r\n");
  802d40:	01002074 	movhi	r4,129
  802d44:	2128c804 	addi	r4,r4,-23776
  802d48:	080325c0 	call	80325c <puts>
	return 0;
  802d4c:	0005883a 	mov	r2,zero
}
  802d50:	e037883a 	mov	sp,fp
  802d54:	dfc00117 	ldw	ra,4(sp)
  802d58:	df000017 	ldw	fp,0(sp)
  802d5c:	dec00204 	addi	sp,sp,8
  802d60:	f800283a 	ret

00802d64 <LRITimerISR>:

alt_u32 LRITimerISR(void* context){
  802d64:	defffd04 	addi	sp,sp,-12
  802d68:	dfc00215 	stw	ra,8(sp)
  802d6c:	df000115 	stw	fp,4(sp)
  802d70:	df000104 	addi	fp,sp,4
  802d74:	e13fff15 	stw	r4,-4(fp)
	LRIExpired = 1;
  802d78:	00800044 	movi	r2,1
  802d7c:	d0a72b05 	stb	r2,-25428(gp)
	LRITimerStarted = 0;
  802d80:	d0274b15 	stw	zero,-25300(gp)
	alt_alarm_start(&LRITimerReset, BUFFER, LRITimerISRReset, 0x0);
  802d84:	000f883a 	mov	r7,zero
  802d88:	01802034 	movhi	r6,128
  802d8c:	318bcd04 	addi	r6,r6,12084
  802d90:	01400044 	movi	r5,1
  802d94:	01002074 	movhi	r4,129
  802d98:	21388304 	addi	r4,r4,-7668
  802d9c:	0805f640 	call	805f64 <alt_alarm_start>
	printf("LRIExpired\r\n");
  802da0:	01002074 	movhi	r4,129
  802da4:	2128cb04 	addi	r4,r4,-23764
  802da8:	080325c0 	call	80325c <puts>
	return 0;
  802dac:	0005883a 	mov	r2,zero
}
  802db0:	e037883a 	mov	sp,fp
  802db4:	dfc00117 	ldw	ra,4(sp)
  802db8:	df000017 	ldw	fp,0(sp)
  802dbc:	dec00204 	addi	sp,sp,8
  802dc0:	f800283a 	ret

00802dc4 <URITimerISR>:

alt_u32 URITimerISR(void* context){
  802dc4:	defffd04 	addi	sp,sp,-12
  802dc8:	dfc00215 	stw	ra,8(sp)
  802dcc:	df000115 	stw	fp,4(sp)
  802dd0:	df000104 	addi	fp,sp,4
  802dd4:	e13fff15 	stw	r4,-4(fp)
	URIExpired = 1;
  802dd8:	00800044 	movi	r2,1
  802ddc:	d0a75385 	stb	r2,-25266(gp)
	URITimerStarted = 0;
  802de0:	d0277815 	stw	zero,-25120(gp)
	alt_alarm_start(&URITimerReset, BUFFER, URITimerISRReset, 0x0);
  802de4:	000f883a 	mov	r7,zero
  802de8:	01802034 	movhi	r6,128
  802dec:	318bd704 	addi	r6,r6,12124
  802df0:	01400044 	movi	r5,1
  802df4:	01002074 	movhi	r4,129
  802df8:	21384104 	addi	r4,r4,-7932
  802dfc:	0805f640 	call	805f64 <alt_alarm_start>
	printf("URIExpired\r\n");
  802e00:	01002074 	movhi	r4,129
  802e04:	2128ce04 	addi	r4,r4,-23752
  802e08:	080325c0 	call	80325c <puts>
	return 0;
  802e0c:	0005883a 	mov	r2,zero
}
  802e10:	e037883a 	mov	sp,fp
  802e14:	dfc00117 	ldw	ra,4(sp)
  802e18:	df000017 	ldw	fp,0(sp)
  802e1c:	dec00204 	addi	sp,sp,8
  802e20:	f800283a 	ret

00802e24 <VRPTimerISR>:

alt_u32 VRPTimerISR(void* context){
  802e24:	defffd04 	addi	sp,sp,-12
  802e28:	dfc00215 	stw	ra,8(sp)
  802e2c:	df000115 	stw	fp,4(sp)
  802e30:	df000104 	addi	fp,sp,4
  802e34:	e13fff15 	stw	r4,-4(fp)
	VRPExpired = 1;
  802e38:	00800044 	movi	r2,1
  802e3c:	d0a73585 	stb	r2,-25386(gp)
	VRPTimerStarted = 0;
  802e40:	d0273f15 	stw	zero,-25348(gp)
	alt_alarm_start(&VRPTimerReset, BUFFER, VRPTimerISRReset, 0x0);
  802e44:	000f883a 	mov	r7,zero
  802e48:	01802034 	movhi	r6,128
  802e4c:	318be104 	addi	r6,r6,12164
  802e50:	01400044 	movi	r5,1
  802e54:	01002074 	movhi	r4,129
  802e58:	21385904 	addi	r4,r4,-7836
  802e5c:	0805f640 	call	805f64 <alt_alarm_start>
	printf("VRPExpired\r\n");
  802e60:	01002074 	movhi	r4,129
  802e64:	2128d104 	addi	r4,r4,-23740
  802e68:	080325c0 	call	80325c <puts>
	return 0;
  802e6c:	0005883a 	mov	r2,zero
}
  802e70:	e037883a 	mov	sp,fp
  802e74:	dfc00117 	ldw	ra,4(sp)
  802e78:	df000017 	ldw	fp,0(sp)
  802e7c:	dec00204 	addi	sp,sp,8
  802e80:	f800283a 	ret

00802e84 <PVARPTimerISR>:

alt_u32 PVARPTimerISR(void* context){
  802e84:	defffd04 	addi	sp,sp,-12
  802e88:	dfc00215 	stw	ra,8(sp)
  802e8c:	df000115 	stw	fp,4(sp)
  802e90:	df000104 	addi	fp,sp,4
  802e94:	e13fff15 	stw	r4,-4(fp)
	PVARPExpired = 1;
  802e98:	00800044 	movi	r2,1
  802e9c:	d0a77645 	stb	r2,-25127(gp)
	PVARPTimerStarted = 0;
  802ea0:	d0274815 	stw	zero,-25312(gp)
	alt_alarm_start(&PVARPTimerReset, BUFFER, PVARPTimerISRReset, 0x0);
  802ea4:	000f883a 	mov	r7,zero
  802ea8:	01802034 	movhi	r6,128
  802eac:	318beb04 	addi	r6,r6,12204
  802eb0:	01400044 	movi	r5,1
  802eb4:	01002074 	movhi	r4,129
  802eb8:	21384d04 	addi	r4,r4,-7884
  802ebc:	0805f640 	call	805f64 <alt_alarm_start>
	printf("PVARPExpired\r\n");
  802ec0:	01002074 	movhi	r4,129
  802ec4:	2128d404 	addi	r4,r4,-23728
  802ec8:	080325c0 	call	80325c <puts>
	return 0;
  802ecc:	0005883a 	mov	r2,zero
}
  802ed0:	e037883a 	mov	sp,fp
  802ed4:	dfc00117 	ldw	ra,4(sp)
  802ed8:	df000017 	ldw	fp,0(sp)
  802edc:	dec00204 	addi	sp,sp,8
  802ee0:	f800283a 	ret

00802ee4 <AEITimerISRReset>:

//these are all timer buffers
alt_u32 AEITimerISRReset(void* context){
  802ee4:	defffe04 	addi	sp,sp,-8
  802ee8:	df000115 	stw	fp,4(sp)
  802eec:	df000104 	addi	fp,sp,4
  802ef0:	e13fff15 	stw	r4,-4(fp)
	AEIExpired = 0;
  802ef4:	d0276bc5 	stb	zero,-25169(gp)
	return 0;
  802ef8:	0005883a 	mov	r2,zero
}
  802efc:	e037883a 	mov	sp,fp
  802f00:	df000017 	ldw	fp,0(sp)
  802f04:	dec00104 	addi	sp,sp,4
  802f08:	f800283a 	ret

00802f0c <AVITimerISRReset>:

alt_u32 AVITimerISRReset(void* context){
  802f0c:	defffe04 	addi	sp,sp,-8
  802f10:	df000115 	stw	fp,4(sp)
  802f14:	df000104 	addi	fp,sp,4
  802f18:	e13fff15 	stw	r4,-4(fp)
	AVIExpired = 0;
  802f1c:	d0274dc5 	stb	zero,-25289(gp)
	return 0;
  802f20:	0005883a 	mov	r2,zero
}
  802f24:	e037883a 	mov	sp,fp
  802f28:	df000017 	ldw	fp,0(sp)
  802f2c:	dec00104 	addi	sp,sp,4
  802f30:	f800283a 	ret

00802f34 <LRITimerISRReset>:

alt_u32 LRITimerISRReset(void* context){
  802f34:	defffe04 	addi	sp,sp,-8
  802f38:	df000115 	stw	fp,4(sp)
  802f3c:	df000104 	addi	fp,sp,4
  802f40:	e13fff15 	stw	r4,-4(fp)
	LRIExpired = 0;
  802f44:	d0272b05 	stb	zero,-25428(gp)
	return 0;
  802f48:	0005883a 	mov	r2,zero
}
  802f4c:	e037883a 	mov	sp,fp
  802f50:	df000017 	ldw	fp,0(sp)
  802f54:	dec00104 	addi	sp,sp,4
  802f58:	f800283a 	ret

00802f5c <URITimerISRReset>:

alt_u32 URITimerISRReset(void* context){
  802f5c:	defffe04 	addi	sp,sp,-8
  802f60:	df000115 	stw	fp,4(sp)
  802f64:	df000104 	addi	fp,sp,4
  802f68:	e13fff15 	stw	r4,-4(fp)
	URIExpired = 0;
  802f6c:	d0275385 	stb	zero,-25266(gp)
	return 0;
  802f70:	0005883a 	mov	r2,zero
}
  802f74:	e037883a 	mov	sp,fp
  802f78:	df000017 	ldw	fp,0(sp)
  802f7c:	dec00104 	addi	sp,sp,4
  802f80:	f800283a 	ret

00802f84 <VRPTimerISRReset>:

alt_u32 VRPTimerISRReset(void* context){
  802f84:	defffe04 	addi	sp,sp,-8
  802f88:	df000115 	stw	fp,4(sp)
  802f8c:	df000104 	addi	fp,sp,4
  802f90:	e13fff15 	stw	r4,-4(fp)
	VRPExpired = 0;
  802f94:	d0273585 	stb	zero,-25386(gp)
	return 0;
  802f98:	0005883a 	mov	r2,zero
}
  802f9c:	e037883a 	mov	sp,fp
  802fa0:	df000017 	ldw	fp,0(sp)
  802fa4:	dec00104 	addi	sp,sp,4
  802fa8:	f800283a 	ret

00802fac <PVARPTimerISRReset>:

alt_u32 PVARPTimerISRReset(void* context){
  802fac:	defffe04 	addi	sp,sp,-8
  802fb0:	df000115 	stw	fp,4(sp)
  802fb4:	df000104 	addi	fp,sp,4
  802fb8:	e13fff15 	stw	r4,-4(fp)
	PVARPExpired = 0;
  802fbc:	d0277645 	stb	zero,-25127(gp)
	return 0;
  802fc0:	0005883a 	mov	r2,zero
}
  802fc4:	e037883a 	mov	sp,fp
  802fc8:	df000017 	ldw	fp,0(sp)
  802fcc:	dec00104 	addi	sp,sp,4
  802fd0:	f800283a 	ret

00802fd4 <ASenseTimerISRReset>:

alt_u32 ASenseTimerISRReset(void* context){
  802fd4:	defffe04 	addi	sp,sp,-8
  802fd8:	df000115 	stw	fp,4(sp)
  802fdc:	df000104 	addi	fp,sp,4
  802fe0:	e13fff15 	stw	r4,-4(fp)
	ASense = 0;
  802fe4:	d0274045 	stb	zero,-25343(gp)
	return 0;
  802fe8:	0005883a 	mov	r2,zero
}
  802fec:	e037883a 	mov	sp,fp
  802ff0:	df000017 	ldw	fp,0(sp)
  802ff4:	dec00104 	addi	sp,sp,4
  802ff8:	f800283a 	ret

00802ffc <VSenseTimerISRReset>:

alt_u32 VSenseTimerISRReset(void* context){
  802ffc:	defffe04 	addi	sp,sp,-8
  803000:	df000115 	stw	fp,4(sp)
  803004:	df000104 	addi	fp,sp,4
  803008:	e13fff15 	stw	r4,-4(fp)
	VSense = 0;
  80300c:	d0275045 	stb	zero,-25279(gp)
	return 0;
  803010:	0005883a 	mov	r2,zero
}
  803014:	e037883a 	mov	sp,fp
  803018:	df000017 	ldw	fp,0(sp)
  80301c:	dec00104 	addi	sp,sp,4
  803020:	f800283a 	ret

00803024 <APLEDTimerISR>:

alt_u32 APLEDTimerISR(void* context){
  803024:	defffd04 	addi	sp,sp,-12
  803028:	dfc00215 	stw	ra,8(sp)
  80302c:	df000115 	stw	fp,4(sp)
  803030:	df000104 	addi	fp,sp,4
  803034:	e13fff15 	stw	r4,-4(fp)
	APLEDTimerStarted = 0;
  803038:	d0273b15 	stw	zero,-25364(gp)
	IOWR_ALTERA_AVALON_PIO_DATA(LEDS_GREEN_BASE, 0b00); //turn off LEDs
  80303c:	0007883a 	mov	r3,zero
  803040:	00804434 	movhi	r2,272
  803044:	10841c04 	addi	r2,r2,4208
  803048:	10c00035 	stwio	r3,0(r2)
	printf("APLEDExpired\r\n");
  80304c:	01002074 	movhi	r4,129
  803050:	2128d804 	addi	r4,r4,-23712
  803054:	080325c0 	call	80325c <puts>
	return 0;
  803058:	0005883a 	mov	r2,zero
}
  80305c:	e037883a 	mov	sp,fp
  803060:	dfc00117 	ldw	ra,4(sp)
  803064:	df000017 	ldw	fp,0(sp)
  803068:	dec00204 	addi	sp,sp,8
  80306c:	f800283a 	ret

00803070 <VPLEDTimerISR>:

alt_u32 VPLEDTimerISR(void* context){
  803070:	defffd04 	addi	sp,sp,-12
  803074:	dfc00215 	stw	ra,8(sp)
  803078:	df000115 	stw	fp,4(sp)
  80307c:	df000104 	addi	fp,sp,4
  803080:	e13fff15 	stw	r4,-4(fp)
	VPLEDTimerStarted = 0;
  803084:	d0274315 	stw	zero,-25332(gp)
	IOWR_ALTERA_AVALON_PIO_DATA(LEDS_GREEN_BASE, 0b00); //turn off LEDs
  803088:	0007883a 	mov	r3,zero
  80308c:	00804434 	movhi	r2,272
  803090:	10841c04 	addi	r2,r2,4208
  803094:	10c00035 	stwio	r3,0(r2)
	printf("VPLEDExpired\r\n");
  803098:	01002074 	movhi	r4,129
  80309c:	2128dc04 	addi	r4,r4,-23696
  8030a0:	080325c0 	call	80325c <puts>
	return 0;
  8030a4:	0005883a 	mov	r2,zero
}
  8030a8:	e037883a 	mov	sp,fp
  8030ac:	dfc00117 	ldw	ra,4(sp)
  8030b0:	df000017 	ldw	fp,0(sp)
  8030b4:	dec00204 	addi	sp,sp,8
  8030b8:	f800283a 	ret

008030bc <checkuart>:
 *      Author: sshe325
 */

#include "uart.h"

void checkuart(){
  8030bc:	defffe04 	addi	sp,sp,-8
  8030c0:	dfc00115 	stw	ra,4(sp)
  8030c4:	df000015 	stw	fp,0(sp)
  8030c8:	d839883a 	mov	fp,sp
	if (read(uart,byte,1) > 0){
  8030cc:	d0a76f17 	ldw	r2,-25156(gp)
  8030d0:	d0e75817 	ldw	r3,-25248(gp)
  8030d4:	01800044 	movi	r6,1
  8030d8:	180b883a 	mov	r5,r3
  8030dc:	1009883a 	mov	r4,r2
  8030e0:	0806a640 	call	806a64 <read>
  8030e4:	0080270e 	bge	zero,r2,803184 <checkuart+0xc8>
		if (*byte == 'A'){
  8030e8:	d0a75817 	ldw	r2,-25248(gp)
  8030ec:	10800003 	ldbu	r2,0(r2)
  8030f0:	10803fcc 	andi	r2,r2,255
  8030f4:	1080201c 	xori	r2,r2,128
  8030f8:	10bfe004 	addi	r2,r2,-128
  8030fc:	10801058 	cmpnei	r2,r2,65
  803100:	10000d1e 	bne	r2,zero,803138 <checkuart+0x7c>
			ASense = 1;//set ASense high
  803104:	00800044 	movi	r2,1
  803108:	d0a74045 	stb	r2,-25343(gp)
			printf("ASense UART\n");
  80310c:	01002074 	movhi	r4,129
  803110:	2128e004 	addi	r4,r4,-23680
  803114:	080325c0 	call	80325c <puts>
			alt_alarm_start(&ASenseTimerReset,BUFFER,ASenseTimerISRReset,0x0); //set signal low after time buffer
  803118:	000f883a 	mov	r7,zero
  80311c:	01802034 	movhi	r6,128
  803120:	318bf504 	addi	r6,r6,12244
  803124:	01400044 	movi	r5,1
  803128:	01002074 	movhi	r4,129
  80312c:	21386b04 	addi	r4,r4,-7764
  803130:	0805f640 	call	805f64 <alt_alarm_start>
			VSense = 1;//set VSense high
			printf("VSense UART\n");
			alt_alarm_start(&VSenseTimerReset,BUFFER,VSenseTimerISRReset,0x0); //set signal low after time buffer
		}
	}
}
  803134:	00001306 	br	803184 <checkuart+0xc8>
		if (*byte == 'A'){
			ASense = 1;//set ASense high
			printf("ASense UART\n");
			alt_alarm_start(&ASenseTimerReset,BUFFER,ASenseTimerISRReset,0x0); //set signal low after time buffer
		}
		else if (*byte == 'V'){
  803138:	d0a75817 	ldw	r2,-25248(gp)
  80313c:	10800003 	ldbu	r2,0(r2)
  803140:	10803fcc 	andi	r2,r2,255
  803144:	1080201c 	xori	r2,r2,128
  803148:	10bfe004 	addi	r2,r2,-128
  80314c:	10801598 	cmpnei	r2,r2,86
  803150:	10000c1e 	bne	r2,zero,803184 <checkuart+0xc8>
			VSense = 1;//set VSense high
  803154:	00800044 	movi	r2,1
  803158:	d0a75045 	stb	r2,-25279(gp)
			printf("VSense UART\n");
  80315c:	01002074 	movhi	r4,129
  803160:	2128e304 	addi	r4,r4,-23668
  803164:	080325c0 	call	80325c <puts>
			alt_alarm_start(&VSenseTimerReset,BUFFER,VSenseTimerISRReset,0x0); //set signal low after time buffer
  803168:	000f883a 	mov	r7,zero
  80316c:	01802034 	movhi	r6,128
  803170:	318bff04 	addi	r6,r6,12284
  803174:	01400044 	movi	r5,1
  803178:	01002074 	movhi	r4,129
  80317c:	21382f04 	addi	r4,r4,-8004
  803180:	0805f640 	call	805f64 <alt_alarm_start>
		}
	}
}
  803184:	0001883a 	nop
  803188:	e037883a 	mov	sp,fp
  80318c:	dfc00117 	ldw	ra,4(sp)
  803190:	df000017 	ldw	fp,0(sp)
  803194:	dec00204 	addi	sp,sp,8
  803198:	f800283a 	ret

0080319c <_puts_r>:
  80319c:	defff604 	addi	sp,sp,-40
  8031a0:	dc000715 	stw	r16,28(sp)
  8031a4:	2021883a 	mov	r16,r4
  8031a8:	2809883a 	mov	r4,r5
  8031ac:	dc400815 	stw	r17,32(sp)
  8031b0:	dfc00915 	stw	ra,36(sp)
  8031b4:	2823883a 	mov	r17,r5
  8031b8:	08032700 	call	803270 <strlen>
  8031bc:	10c00044 	addi	r3,r2,1
  8031c0:	d8800115 	stw	r2,4(sp)
  8031c4:	00802074 	movhi	r2,129
  8031c8:	10a8e604 	addi	r2,r2,-23656
  8031cc:	d8800215 	stw	r2,8(sp)
  8031d0:	00800044 	movi	r2,1
  8031d4:	d8800315 	stw	r2,12(sp)
  8031d8:	00800084 	movi	r2,2
  8031dc:	dc400015 	stw	r17,0(sp)
  8031e0:	d8c00615 	stw	r3,24(sp)
  8031e4:	dec00415 	stw	sp,16(sp)
  8031e8:	d8800515 	stw	r2,20(sp)
  8031ec:	80000226 	beq	r16,zero,8031f8 <_puts_r+0x5c>
  8031f0:	80800e17 	ldw	r2,56(r16)
  8031f4:	10001426 	beq	r2,zero,803248 <_puts_r+0xac>
  8031f8:	81400217 	ldw	r5,8(r16)
  8031fc:	2880030b 	ldhu	r2,12(r5)
  803200:	10c8000c 	andi	r3,r2,8192
  803204:	1800061e 	bne	r3,zero,803220 <_puts_r+0x84>
  803208:	29001917 	ldw	r4,100(r5)
  80320c:	00f7ffc4 	movi	r3,-8193
  803210:	10880014 	ori	r2,r2,8192
  803214:	20c6703a 	and	r3,r4,r3
  803218:	2880030d 	sth	r2,12(r5)
  80321c:	28c01915 	stw	r3,100(r5)
  803220:	d9800404 	addi	r6,sp,16
  803224:	8009883a 	mov	r4,r16
  803228:	08036a80 	call	8036a8 <__sfvwrite_r>
  80322c:	1000091e 	bne	r2,zero,803254 <_puts_r+0xb8>
  803230:	00800284 	movi	r2,10
  803234:	dfc00917 	ldw	ra,36(sp)
  803238:	dc400817 	ldw	r17,32(sp)
  80323c:	dc000717 	ldw	r16,28(sp)
  803240:	dec00a04 	addi	sp,sp,40
  803244:	f800283a 	ret
  803248:	8009883a 	mov	r4,r16
  80324c:	08036580 	call	803658 <__sinit>
  803250:	003fe906 	br	8031f8 <__alt_mem_onchip_mem+0xff7831f8>
  803254:	00bfffc4 	movi	r2,-1
  803258:	003ff606 	br	803234 <__alt_mem_onchip_mem+0xff783234>

0080325c <puts>:
  80325c:	00802074 	movhi	r2,129
  803260:	10b0a204 	addi	r2,r2,-15736
  803264:	200b883a 	mov	r5,r4
  803268:	11000017 	ldw	r4,0(r2)
  80326c:	080319c1 	jmpi	80319c <_puts_r>

00803270 <strlen>:
  803270:	208000cc 	andi	r2,r4,3
  803274:	10002026 	beq	r2,zero,8032f8 <strlen+0x88>
  803278:	20800007 	ldb	r2,0(r4)
  80327c:	10002026 	beq	r2,zero,803300 <strlen+0x90>
  803280:	2005883a 	mov	r2,r4
  803284:	00000206 	br	803290 <strlen+0x20>
  803288:	10c00007 	ldb	r3,0(r2)
  80328c:	18001826 	beq	r3,zero,8032f0 <strlen+0x80>
  803290:	10800044 	addi	r2,r2,1
  803294:	10c000cc 	andi	r3,r2,3
  803298:	183ffb1e 	bne	r3,zero,803288 <__alt_mem_onchip_mem+0xff783288>
  80329c:	10c00017 	ldw	r3,0(r2)
  8032a0:	01ffbff4 	movhi	r7,65279
  8032a4:	39ffbfc4 	addi	r7,r7,-257
  8032a8:	00ca303a 	nor	r5,zero,r3
  8032ac:	01a02074 	movhi	r6,32897
  8032b0:	19c7883a 	add	r3,r3,r7
  8032b4:	31a02004 	addi	r6,r6,-32640
  8032b8:	1946703a 	and	r3,r3,r5
  8032bc:	1986703a 	and	r3,r3,r6
  8032c0:	1800091e 	bne	r3,zero,8032e8 <strlen+0x78>
  8032c4:	10800104 	addi	r2,r2,4
  8032c8:	10c00017 	ldw	r3,0(r2)
  8032cc:	19cb883a 	add	r5,r3,r7
  8032d0:	00c6303a 	nor	r3,zero,r3
  8032d4:	28c6703a 	and	r3,r5,r3
  8032d8:	1986703a 	and	r3,r3,r6
  8032dc:	183ff926 	beq	r3,zero,8032c4 <__alt_mem_onchip_mem+0xff7832c4>
  8032e0:	00000106 	br	8032e8 <strlen+0x78>
  8032e4:	10800044 	addi	r2,r2,1
  8032e8:	10c00007 	ldb	r3,0(r2)
  8032ec:	183ffd1e 	bne	r3,zero,8032e4 <__alt_mem_onchip_mem+0xff7832e4>
  8032f0:	1105c83a 	sub	r2,r2,r4
  8032f4:	f800283a 	ret
  8032f8:	2005883a 	mov	r2,r4
  8032fc:	003fe706 	br	80329c <__alt_mem_onchip_mem+0xff78329c>
  803300:	0005883a 	mov	r2,zero
  803304:	f800283a 	ret

00803308 <__fp_unlock>:
  803308:	0005883a 	mov	r2,zero
  80330c:	f800283a 	ret

00803310 <_cleanup_r>:
  803310:	01402034 	movhi	r5,128
  803314:	2954a904 	addi	r5,r5,21156
  803318:	0803c281 	jmpi	803c28 <_fwalk_reent>

0080331c <__sinit.part.1>:
  80331c:	defff704 	addi	sp,sp,-36
  803320:	00c02034 	movhi	r3,128
  803324:	dfc00815 	stw	ra,32(sp)
  803328:	ddc00715 	stw	r23,28(sp)
  80332c:	dd800615 	stw	r22,24(sp)
  803330:	dd400515 	stw	r21,20(sp)
  803334:	dd000415 	stw	r20,16(sp)
  803338:	dcc00315 	stw	r19,12(sp)
  80333c:	dc800215 	stw	r18,8(sp)
  803340:	dc400115 	stw	r17,4(sp)
  803344:	dc000015 	stw	r16,0(sp)
  803348:	18ccc404 	addi	r3,r3,13072
  80334c:	24000117 	ldw	r16,4(r4)
  803350:	20c00f15 	stw	r3,60(r4)
  803354:	2080bb04 	addi	r2,r4,748
  803358:	00c000c4 	movi	r3,3
  80335c:	20c0b915 	stw	r3,740(r4)
  803360:	2080ba15 	stw	r2,744(r4)
  803364:	2000b815 	stw	zero,736(r4)
  803368:	05c00204 	movi	r23,8
  80336c:	00800104 	movi	r2,4
  803370:	2025883a 	mov	r18,r4
  803374:	b80d883a 	mov	r6,r23
  803378:	81001704 	addi	r4,r16,92
  80337c:	000b883a 	mov	r5,zero
  803380:	80000015 	stw	zero,0(r16)
  803384:	80000115 	stw	zero,4(r16)
  803388:	80000215 	stw	zero,8(r16)
  80338c:	8080030d 	sth	r2,12(r16)
  803390:	80001915 	stw	zero,100(r16)
  803394:	8000038d 	sth	zero,14(r16)
  803398:	80000415 	stw	zero,16(r16)
  80339c:	80000515 	stw	zero,20(r16)
  8033a0:	80000615 	stw	zero,24(r16)
  8033a4:	08048800 	call	804880 <memset>
  8033a8:	05802034 	movhi	r22,128
  8033ac:	94400217 	ldw	r17,8(r18)
  8033b0:	05402034 	movhi	r21,128
  8033b4:	05002034 	movhi	r20,128
  8033b8:	04c02034 	movhi	r19,128
  8033bc:	b593d804 	addi	r22,r22,20320
  8033c0:	ad53ef04 	addi	r21,r21,20412
  8033c4:	a5140e04 	addi	r20,r20,20536
  8033c8:	9cd42504 	addi	r19,r19,20628
  8033cc:	85800815 	stw	r22,32(r16)
  8033d0:	85400915 	stw	r21,36(r16)
  8033d4:	85000a15 	stw	r20,40(r16)
  8033d8:	84c00b15 	stw	r19,44(r16)
  8033dc:	84000715 	stw	r16,28(r16)
  8033e0:	00800284 	movi	r2,10
  8033e4:	8880030d 	sth	r2,12(r17)
  8033e8:	00800044 	movi	r2,1
  8033ec:	b80d883a 	mov	r6,r23
  8033f0:	89001704 	addi	r4,r17,92
  8033f4:	000b883a 	mov	r5,zero
  8033f8:	88000015 	stw	zero,0(r17)
  8033fc:	88000115 	stw	zero,4(r17)
  803400:	88000215 	stw	zero,8(r17)
  803404:	88001915 	stw	zero,100(r17)
  803408:	8880038d 	sth	r2,14(r17)
  80340c:	88000415 	stw	zero,16(r17)
  803410:	88000515 	stw	zero,20(r17)
  803414:	88000615 	stw	zero,24(r17)
  803418:	08048800 	call	804880 <memset>
  80341c:	94000317 	ldw	r16,12(r18)
  803420:	00800484 	movi	r2,18
  803424:	8c400715 	stw	r17,28(r17)
  803428:	8d800815 	stw	r22,32(r17)
  80342c:	8d400915 	stw	r21,36(r17)
  803430:	8d000a15 	stw	r20,40(r17)
  803434:	8cc00b15 	stw	r19,44(r17)
  803438:	8080030d 	sth	r2,12(r16)
  80343c:	00800084 	movi	r2,2
  803440:	80000015 	stw	zero,0(r16)
  803444:	80000115 	stw	zero,4(r16)
  803448:	80000215 	stw	zero,8(r16)
  80344c:	80001915 	stw	zero,100(r16)
  803450:	8080038d 	sth	r2,14(r16)
  803454:	80000415 	stw	zero,16(r16)
  803458:	80000515 	stw	zero,20(r16)
  80345c:	80000615 	stw	zero,24(r16)
  803460:	b80d883a 	mov	r6,r23
  803464:	000b883a 	mov	r5,zero
  803468:	81001704 	addi	r4,r16,92
  80346c:	08048800 	call	804880 <memset>
  803470:	00800044 	movi	r2,1
  803474:	84000715 	stw	r16,28(r16)
  803478:	85800815 	stw	r22,32(r16)
  80347c:	85400915 	stw	r21,36(r16)
  803480:	85000a15 	stw	r20,40(r16)
  803484:	84c00b15 	stw	r19,44(r16)
  803488:	90800e15 	stw	r2,56(r18)
  80348c:	dfc00817 	ldw	ra,32(sp)
  803490:	ddc00717 	ldw	r23,28(sp)
  803494:	dd800617 	ldw	r22,24(sp)
  803498:	dd400517 	ldw	r21,20(sp)
  80349c:	dd000417 	ldw	r20,16(sp)
  8034a0:	dcc00317 	ldw	r19,12(sp)
  8034a4:	dc800217 	ldw	r18,8(sp)
  8034a8:	dc400117 	ldw	r17,4(sp)
  8034ac:	dc000017 	ldw	r16,0(sp)
  8034b0:	dec00904 	addi	sp,sp,36
  8034b4:	f800283a 	ret

008034b8 <__fp_lock>:
  8034b8:	0005883a 	mov	r2,zero
  8034bc:	f800283a 	ret

008034c0 <__sfmoreglue>:
  8034c0:	defffc04 	addi	sp,sp,-16
  8034c4:	dc400115 	stw	r17,4(sp)
  8034c8:	2c7fffc4 	addi	r17,r5,-1
  8034cc:	8c401a24 	muli	r17,r17,104
  8034d0:	dc800215 	stw	r18,8(sp)
  8034d4:	2825883a 	mov	r18,r5
  8034d8:	89401d04 	addi	r5,r17,116
  8034dc:	dc000015 	stw	r16,0(sp)
  8034e0:	dfc00315 	stw	ra,12(sp)
  8034e4:	0803cec0 	call	803cec <_malloc_r>
  8034e8:	1021883a 	mov	r16,r2
  8034ec:	10000726 	beq	r2,zero,80350c <__sfmoreglue+0x4c>
  8034f0:	11000304 	addi	r4,r2,12
  8034f4:	10000015 	stw	zero,0(r2)
  8034f8:	14800115 	stw	r18,4(r2)
  8034fc:	11000215 	stw	r4,8(r2)
  803500:	89801a04 	addi	r6,r17,104
  803504:	000b883a 	mov	r5,zero
  803508:	08048800 	call	804880 <memset>
  80350c:	8005883a 	mov	r2,r16
  803510:	dfc00317 	ldw	ra,12(sp)
  803514:	dc800217 	ldw	r18,8(sp)
  803518:	dc400117 	ldw	r17,4(sp)
  80351c:	dc000017 	ldw	r16,0(sp)
  803520:	dec00404 	addi	sp,sp,16
  803524:	f800283a 	ret

00803528 <__sfp>:
  803528:	defffb04 	addi	sp,sp,-20
  80352c:	dc000015 	stw	r16,0(sp)
  803530:	04002074 	movhi	r16,129
  803534:	8430a104 	addi	r16,r16,-15740
  803538:	dcc00315 	stw	r19,12(sp)
  80353c:	2027883a 	mov	r19,r4
  803540:	81000017 	ldw	r4,0(r16)
  803544:	dfc00415 	stw	ra,16(sp)
  803548:	dc800215 	stw	r18,8(sp)
  80354c:	20800e17 	ldw	r2,56(r4)
  803550:	dc400115 	stw	r17,4(sp)
  803554:	1000021e 	bne	r2,zero,803560 <__sfp+0x38>
  803558:	080331c0 	call	80331c <__sinit.part.1>
  80355c:	81000017 	ldw	r4,0(r16)
  803560:	2480b804 	addi	r18,r4,736
  803564:	047fffc4 	movi	r17,-1
  803568:	91000117 	ldw	r4,4(r18)
  80356c:	94000217 	ldw	r16,8(r18)
  803570:	213fffc4 	addi	r4,r4,-1
  803574:	20000a16 	blt	r4,zero,8035a0 <__sfp+0x78>
  803578:	8080030f 	ldh	r2,12(r16)
  80357c:	10000c26 	beq	r2,zero,8035b0 <__sfp+0x88>
  803580:	80c01d04 	addi	r3,r16,116
  803584:	00000206 	br	803590 <__sfp+0x68>
  803588:	18bfe60f 	ldh	r2,-104(r3)
  80358c:	10000826 	beq	r2,zero,8035b0 <__sfp+0x88>
  803590:	213fffc4 	addi	r4,r4,-1
  803594:	1c3ffd04 	addi	r16,r3,-12
  803598:	18c01a04 	addi	r3,r3,104
  80359c:	247ffa1e 	bne	r4,r17,803588 <__alt_mem_onchip_mem+0xff783588>
  8035a0:	90800017 	ldw	r2,0(r18)
  8035a4:	10001d26 	beq	r2,zero,80361c <__sfp+0xf4>
  8035a8:	1025883a 	mov	r18,r2
  8035ac:	003fee06 	br	803568 <__alt_mem_onchip_mem+0xff783568>
  8035b0:	00bfffc4 	movi	r2,-1
  8035b4:	8080038d 	sth	r2,14(r16)
  8035b8:	00800044 	movi	r2,1
  8035bc:	8080030d 	sth	r2,12(r16)
  8035c0:	80001915 	stw	zero,100(r16)
  8035c4:	80000015 	stw	zero,0(r16)
  8035c8:	80000215 	stw	zero,8(r16)
  8035cc:	80000115 	stw	zero,4(r16)
  8035d0:	80000415 	stw	zero,16(r16)
  8035d4:	80000515 	stw	zero,20(r16)
  8035d8:	80000615 	stw	zero,24(r16)
  8035dc:	01800204 	movi	r6,8
  8035e0:	000b883a 	mov	r5,zero
  8035e4:	81001704 	addi	r4,r16,92
  8035e8:	08048800 	call	804880 <memset>
  8035ec:	8005883a 	mov	r2,r16
  8035f0:	80000c15 	stw	zero,48(r16)
  8035f4:	80000d15 	stw	zero,52(r16)
  8035f8:	80001115 	stw	zero,68(r16)
  8035fc:	80001215 	stw	zero,72(r16)
  803600:	dfc00417 	ldw	ra,16(sp)
  803604:	dcc00317 	ldw	r19,12(sp)
  803608:	dc800217 	ldw	r18,8(sp)
  80360c:	dc400117 	ldw	r17,4(sp)
  803610:	dc000017 	ldw	r16,0(sp)
  803614:	dec00504 	addi	sp,sp,20
  803618:	f800283a 	ret
  80361c:	01400104 	movi	r5,4
  803620:	9809883a 	mov	r4,r19
  803624:	08034c00 	call	8034c0 <__sfmoreglue>
  803628:	90800015 	stw	r2,0(r18)
  80362c:	103fde1e 	bne	r2,zero,8035a8 <__alt_mem_onchip_mem+0xff7835a8>
  803630:	00800304 	movi	r2,12
  803634:	98800015 	stw	r2,0(r19)
  803638:	0005883a 	mov	r2,zero
  80363c:	003ff006 	br	803600 <__alt_mem_onchip_mem+0xff783600>

00803640 <_cleanup>:
  803640:	00802074 	movhi	r2,129
  803644:	10b0a104 	addi	r2,r2,-15740
  803648:	11000017 	ldw	r4,0(r2)
  80364c:	01402034 	movhi	r5,128
  803650:	2954a904 	addi	r5,r5,21156
  803654:	0803c281 	jmpi	803c28 <_fwalk_reent>

00803658 <__sinit>:
  803658:	20800e17 	ldw	r2,56(r4)
  80365c:	10000126 	beq	r2,zero,803664 <__sinit+0xc>
  803660:	f800283a 	ret
  803664:	080331c1 	jmpi	80331c <__sinit.part.1>

00803668 <__sfp_lock_acquire>:
  803668:	f800283a 	ret

0080366c <__sfp_lock_release>:
  80366c:	f800283a 	ret

00803670 <__sinit_lock_acquire>:
  803670:	f800283a 	ret

00803674 <__sinit_lock_release>:
  803674:	f800283a 	ret

00803678 <__fp_lock_all>:
  803678:	00802074 	movhi	r2,129
  80367c:	10b0a204 	addi	r2,r2,-15736
  803680:	11000017 	ldw	r4,0(r2)
  803684:	01402034 	movhi	r5,128
  803688:	294d2e04 	addi	r5,r5,13496
  80368c:	0803b641 	jmpi	803b64 <_fwalk>

00803690 <__fp_unlock_all>:
  803690:	00802074 	movhi	r2,129
  803694:	10b0a204 	addi	r2,r2,-15736
  803698:	11000017 	ldw	r4,0(r2)
  80369c:	01402034 	movhi	r5,128
  8036a0:	294cc204 	addi	r5,r5,13064
  8036a4:	0803b641 	jmpi	803b64 <_fwalk>

008036a8 <__sfvwrite_r>:
  8036a8:	30800217 	ldw	r2,8(r6)
  8036ac:	10006726 	beq	r2,zero,80384c <__sfvwrite_r+0x1a4>
  8036b0:	28c0030b 	ldhu	r3,12(r5)
  8036b4:	defff404 	addi	sp,sp,-48
  8036b8:	dd400715 	stw	r21,28(sp)
  8036bc:	dd000615 	stw	r20,24(sp)
  8036c0:	dc000215 	stw	r16,8(sp)
  8036c4:	dfc00b15 	stw	ra,44(sp)
  8036c8:	df000a15 	stw	fp,40(sp)
  8036cc:	ddc00915 	stw	r23,36(sp)
  8036d0:	dd800815 	stw	r22,32(sp)
  8036d4:	dcc00515 	stw	r19,20(sp)
  8036d8:	dc800415 	stw	r18,16(sp)
  8036dc:	dc400315 	stw	r17,12(sp)
  8036e0:	1880020c 	andi	r2,r3,8
  8036e4:	2821883a 	mov	r16,r5
  8036e8:	202b883a 	mov	r21,r4
  8036ec:	3029883a 	mov	r20,r6
  8036f0:	10002726 	beq	r2,zero,803790 <__sfvwrite_r+0xe8>
  8036f4:	28800417 	ldw	r2,16(r5)
  8036f8:	10002526 	beq	r2,zero,803790 <__sfvwrite_r+0xe8>
  8036fc:	1880008c 	andi	r2,r3,2
  803700:	a4400017 	ldw	r17,0(r20)
  803704:	10002a26 	beq	r2,zero,8037b0 <__sfvwrite_r+0x108>
  803708:	05a00034 	movhi	r22,32768
  80370c:	0027883a 	mov	r19,zero
  803710:	0025883a 	mov	r18,zero
  803714:	b5bf0004 	addi	r22,r22,-1024
  803718:	980d883a 	mov	r6,r19
  80371c:	a809883a 	mov	r4,r21
  803720:	90004626 	beq	r18,zero,80383c <__sfvwrite_r+0x194>
  803724:	900f883a 	mov	r7,r18
  803728:	b480022e 	bgeu	r22,r18,803734 <__sfvwrite_r+0x8c>
  80372c:	01e00034 	movhi	r7,32768
  803730:	39ff0004 	addi	r7,r7,-1024
  803734:	80800917 	ldw	r2,36(r16)
  803738:	81400717 	ldw	r5,28(r16)
  80373c:	103ee83a 	callr	r2
  803740:	0080570e 	bge	zero,r2,8038a0 <__sfvwrite_r+0x1f8>
  803744:	a0c00217 	ldw	r3,8(r20)
  803748:	98a7883a 	add	r19,r19,r2
  80374c:	90a5c83a 	sub	r18,r18,r2
  803750:	1885c83a 	sub	r2,r3,r2
  803754:	a0800215 	stw	r2,8(r20)
  803758:	103fef1e 	bne	r2,zero,803718 <__alt_mem_onchip_mem+0xff783718>
  80375c:	0005883a 	mov	r2,zero
  803760:	dfc00b17 	ldw	ra,44(sp)
  803764:	df000a17 	ldw	fp,40(sp)
  803768:	ddc00917 	ldw	r23,36(sp)
  80376c:	dd800817 	ldw	r22,32(sp)
  803770:	dd400717 	ldw	r21,28(sp)
  803774:	dd000617 	ldw	r20,24(sp)
  803778:	dcc00517 	ldw	r19,20(sp)
  80377c:	dc800417 	ldw	r18,16(sp)
  803780:	dc400317 	ldw	r17,12(sp)
  803784:	dc000217 	ldw	r16,8(sp)
  803788:	dec00c04 	addi	sp,sp,48
  80378c:	f800283a 	ret
  803790:	800b883a 	mov	r5,r16
  803794:	a809883a 	mov	r4,r21
  803798:	08050fc0 	call	8050fc <__swsetup_r>
  80379c:	1000eb1e 	bne	r2,zero,803b4c <__sfvwrite_r+0x4a4>
  8037a0:	80c0030b 	ldhu	r3,12(r16)
  8037a4:	a4400017 	ldw	r17,0(r20)
  8037a8:	1880008c 	andi	r2,r3,2
  8037ac:	103fd61e 	bne	r2,zero,803708 <__alt_mem_onchip_mem+0xff783708>
  8037b0:	1880004c 	andi	r2,r3,1
  8037b4:	10003f1e 	bne	r2,zero,8038b4 <__sfvwrite_r+0x20c>
  8037b8:	0039883a 	mov	fp,zero
  8037bc:	0025883a 	mov	r18,zero
  8037c0:	90001a26 	beq	r18,zero,80382c <__sfvwrite_r+0x184>
  8037c4:	1880800c 	andi	r2,r3,512
  8037c8:	84c00217 	ldw	r19,8(r16)
  8037cc:	10002126 	beq	r2,zero,803854 <__sfvwrite_r+0x1ac>
  8037d0:	982f883a 	mov	r23,r19
  8037d4:	94c09336 	bltu	r18,r19,803a24 <__sfvwrite_r+0x37c>
  8037d8:	1881200c 	andi	r2,r3,1152
  8037dc:	10009e1e 	bne	r2,zero,803a58 <__sfvwrite_r+0x3b0>
  8037e0:	81000017 	ldw	r4,0(r16)
  8037e4:	b80d883a 	mov	r6,r23
  8037e8:	e00b883a 	mov	r5,fp
  8037ec:	08047240 	call	804724 <memmove>
  8037f0:	80c00217 	ldw	r3,8(r16)
  8037f4:	81000017 	ldw	r4,0(r16)
  8037f8:	9005883a 	mov	r2,r18
  8037fc:	1ce7c83a 	sub	r19,r3,r19
  803800:	25cf883a 	add	r7,r4,r23
  803804:	84c00215 	stw	r19,8(r16)
  803808:	81c00015 	stw	r7,0(r16)
  80380c:	a0c00217 	ldw	r3,8(r20)
  803810:	e0b9883a 	add	fp,fp,r2
  803814:	90a5c83a 	sub	r18,r18,r2
  803818:	18a7c83a 	sub	r19,r3,r2
  80381c:	a4c00215 	stw	r19,8(r20)
  803820:	983fce26 	beq	r19,zero,80375c <__alt_mem_onchip_mem+0xff78375c>
  803824:	80c0030b 	ldhu	r3,12(r16)
  803828:	903fe61e 	bne	r18,zero,8037c4 <__alt_mem_onchip_mem+0xff7837c4>
  80382c:	8f000017 	ldw	fp,0(r17)
  803830:	8c800117 	ldw	r18,4(r17)
  803834:	8c400204 	addi	r17,r17,8
  803838:	003fe106 	br	8037c0 <__alt_mem_onchip_mem+0xff7837c0>
  80383c:	8cc00017 	ldw	r19,0(r17)
  803840:	8c800117 	ldw	r18,4(r17)
  803844:	8c400204 	addi	r17,r17,8
  803848:	003fb306 	br	803718 <__alt_mem_onchip_mem+0xff783718>
  80384c:	0005883a 	mov	r2,zero
  803850:	f800283a 	ret
  803854:	81000017 	ldw	r4,0(r16)
  803858:	80800417 	ldw	r2,16(r16)
  80385c:	11005736 	bltu	r2,r4,8039bc <__sfvwrite_r+0x314>
  803860:	85c00517 	ldw	r23,20(r16)
  803864:	95c05536 	bltu	r18,r23,8039bc <__sfvwrite_r+0x314>
  803868:	00a00034 	movhi	r2,32768
  80386c:	10bfffc4 	addi	r2,r2,-1
  803870:	9009883a 	mov	r4,r18
  803874:	1480012e 	bgeu	r2,r18,80387c <__sfvwrite_r+0x1d4>
  803878:	1009883a 	mov	r4,r2
  80387c:	b80b883a 	mov	r5,r23
  803880:	0805db00 	call	805db0 <__divsi3>
  803884:	15cf383a 	mul	r7,r2,r23
  803888:	81400717 	ldw	r5,28(r16)
  80388c:	80800917 	ldw	r2,36(r16)
  803890:	e00d883a 	mov	r6,fp
  803894:	a809883a 	mov	r4,r21
  803898:	103ee83a 	callr	r2
  80389c:	00bfdb16 	blt	zero,r2,80380c <__alt_mem_onchip_mem+0xff78380c>
  8038a0:	8080030b 	ldhu	r2,12(r16)
  8038a4:	10801014 	ori	r2,r2,64
  8038a8:	8080030d 	sth	r2,12(r16)
  8038ac:	00bfffc4 	movi	r2,-1
  8038b0:	003fab06 	br	803760 <__alt_mem_onchip_mem+0xff783760>
  8038b4:	0027883a 	mov	r19,zero
  8038b8:	0011883a 	mov	r8,zero
  8038bc:	0039883a 	mov	fp,zero
  8038c0:	0025883a 	mov	r18,zero
  8038c4:	90001f26 	beq	r18,zero,803944 <__sfvwrite_r+0x29c>
  8038c8:	40005a26 	beq	r8,zero,803a34 <__sfvwrite_r+0x38c>
  8038cc:	982d883a 	mov	r22,r19
  8038d0:	94c0012e 	bgeu	r18,r19,8038d8 <__sfvwrite_r+0x230>
  8038d4:	902d883a 	mov	r22,r18
  8038d8:	81000017 	ldw	r4,0(r16)
  8038dc:	80800417 	ldw	r2,16(r16)
  8038e0:	b02f883a 	mov	r23,r22
  8038e4:	81c00517 	ldw	r7,20(r16)
  8038e8:	1100032e 	bgeu	r2,r4,8038f8 <__sfvwrite_r+0x250>
  8038ec:	80c00217 	ldw	r3,8(r16)
  8038f0:	38c7883a 	add	r3,r7,r3
  8038f4:	1d801816 	blt	r3,r22,803958 <__sfvwrite_r+0x2b0>
  8038f8:	b1c03e16 	blt	r22,r7,8039f4 <__sfvwrite_r+0x34c>
  8038fc:	80800917 	ldw	r2,36(r16)
  803900:	81400717 	ldw	r5,28(r16)
  803904:	e00d883a 	mov	r6,fp
  803908:	da000115 	stw	r8,4(sp)
  80390c:	a809883a 	mov	r4,r21
  803910:	103ee83a 	callr	r2
  803914:	102f883a 	mov	r23,r2
  803918:	da000117 	ldw	r8,4(sp)
  80391c:	00bfe00e 	bge	zero,r2,8038a0 <__alt_mem_onchip_mem+0xff7838a0>
  803920:	9de7c83a 	sub	r19,r19,r23
  803924:	98001f26 	beq	r19,zero,8039a4 <__sfvwrite_r+0x2fc>
  803928:	a0800217 	ldw	r2,8(r20)
  80392c:	e5f9883a 	add	fp,fp,r23
  803930:	95e5c83a 	sub	r18,r18,r23
  803934:	15efc83a 	sub	r23,r2,r23
  803938:	a5c00215 	stw	r23,8(r20)
  80393c:	b83f8726 	beq	r23,zero,80375c <__alt_mem_onchip_mem+0xff78375c>
  803940:	903fe11e 	bne	r18,zero,8038c8 <__alt_mem_onchip_mem+0xff7838c8>
  803944:	8f000017 	ldw	fp,0(r17)
  803948:	8c800117 	ldw	r18,4(r17)
  80394c:	0011883a 	mov	r8,zero
  803950:	8c400204 	addi	r17,r17,8
  803954:	003fdb06 	br	8038c4 <__alt_mem_onchip_mem+0xff7838c4>
  803958:	180d883a 	mov	r6,r3
  80395c:	e00b883a 	mov	r5,fp
  803960:	da000115 	stw	r8,4(sp)
  803964:	d8c00015 	stw	r3,0(sp)
  803968:	08047240 	call	804724 <memmove>
  80396c:	d8c00017 	ldw	r3,0(sp)
  803970:	80800017 	ldw	r2,0(r16)
  803974:	800b883a 	mov	r5,r16
  803978:	a809883a 	mov	r4,r21
  80397c:	10c5883a 	add	r2,r2,r3
  803980:	80800015 	stw	r2,0(r16)
  803984:	d8c00015 	stw	r3,0(sp)
  803988:	08055c40 	call	8055c4 <_fflush_r>
  80398c:	d8c00017 	ldw	r3,0(sp)
  803990:	da000117 	ldw	r8,4(sp)
  803994:	103fc21e 	bne	r2,zero,8038a0 <__alt_mem_onchip_mem+0xff7838a0>
  803998:	182f883a 	mov	r23,r3
  80399c:	9de7c83a 	sub	r19,r19,r23
  8039a0:	983fe11e 	bne	r19,zero,803928 <__alt_mem_onchip_mem+0xff783928>
  8039a4:	800b883a 	mov	r5,r16
  8039a8:	a809883a 	mov	r4,r21
  8039ac:	08055c40 	call	8055c4 <_fflush_r>
  8039b0:	103fbb1e 	bne	r2,zero,8038a0 <__alt_mem_onchip_mem+0xff7838a0>
  8039b4:	0011883a 	mov	r8,zero
  8039b8:	003fdb06 	br	803928 <__alt_mem_onchip_mem+0xff783928>
  8039bc:	94c0012e 	bgeu	r18,r19,8039c4 <__sfvwrite_r+0x31c>
  8039c0:	9027883a 	mov	r19,r18
  8039c4:	980d883a 	mov	r6,r19
  8039c8:	e00b883a 	mov	r5,fp
  8039cc:	08047240 	call	804724 <memmove>
  8039d0:	80800217 	ldw	r2,8(r16)
  8039d4:	80c00017 	ldw	r3,0(r16)
  8039d8:	14c5c83a 	sub	r2,r2,r19
  8039dc:	1cc7883a 	add	r3,r3,r19
  8039e0:	80800215 	stw	r2,8(r16)
  8039e4:	80c00015 	stw	r3,0(r16)
  8039e8:	10004326 	beq	r2,zero,803af8 <__sfvwrite_r+0x450>
  8039ec:	9805883a 	mov	r2,r19
  8039f0:	003f8606 	br	80380c <__alt_mem_onchip_mem+0xff78380c>
  8039f4:	b00d883a 	mov	r6,r22
  8039f8:	e00b883a 	mov	r5,fp
  8039fc:	da000115 	stw	r8,4(sp)
  803a00:	08047240 	call	804724 <memmove>
  803a04:	80800217 	ldw	r2,8(r16)
  803a08:	80c00017 	ldw	r3,0(r16)
  803a0c:	da000117 	ldw	r8,4(sp)
  803a10:	1585c83a 	sub	r2,r2,r22
  803a14:	1dad883a 	add	r22,r3,r22
  803a18:	80800215 	stw	r2,8(r16)
  803a1c:	85800015 	stw	r22,0(r16)
  803a20:	003fbf06 	br	803920 <__alt_mem_onchip_mem+0xff783920>
  803a24:	81000017 	ldw	r4,0(r16)
  803a28:	9027883a 	mov	r19,r18
  803a2c:	902f883a 	mov	r23,r18
  803a30:	003f6c06 	br	8037e4 <__alt_mem_onchip_mem+0xff7837e4>
  803a34:	900d883a 	mov	r6,r18
  803a38:	01400284 	movi	r5,10
  803a3c:	e009883a 	mov	r4,fp
  803a40:	08044f80 	call	8044f8 <memchr>
  803a44:	10003e26 	beq	r2,zero,803b40 <__sfvwrite_r+0x498>
  803a48:	10800044 	addi	r2,r2,1
  803a4c:	1727c83a 	sub	r19,r2,fp
  803a50:	02000044 	movi	r8,1
  803a54:	003f9d06 	br	8038cc <__alt_mem_onchip_mem+0xff7838cc>
  803a58:	80800517 	ldw	r2,20(r16)
  803a5c:	81400417 	ldw	r5,16(r16)
  803a60:	81c00017 	ldw	r7,0(r16)
  803a64:	10a7883a 	add	r19,r2,r2
  803a68:	9885883a 	add	r2,r19,r2
  803a6c:	1026d7fa 	srli	r19,r2,31
  803a70:	396dc83a 	sub	r22,r7,r5
  803a74:	b1000044 	addi	r4,r22,1
  803a78:	9885883a 	add	r2,r19,r2
  803a7c:	1027d07a 	srai	r19,r2,1
  803a80:	2485883a 	add	r2,r4,r18
  803a84:	980d883a 	mov	r6,r19
  803a88:	9880022e 	bgeu	r19,r2,803a94 <__sfvwrite_r+0x3ec>
  803a8c:	1027883a 	mov	r19,r2
  803a90:	100d883a 	mov	r6,r2
  803a94:	18c1000c 	andi	r3,r3,1024
  803a98:	18001c26 	beq	r3,zero,803b0c <__sfvwrite_r+0x464>
  803a9c:	300b883a 	mov	r5,r6
  803aa0:	a809883a 	mov	r4,r21
  803aa4:	0803cec0 	call	803cec <_malloc_r>
  803aa8:	102f883a 	mov	r23,r2
  803aac:	10002926 	beq	r2,zero,803b54 <__sfvwrite_r+0x4ac>
  803ab0:	81400417 	ldw	r5,16(r16)
  803ab4:	b00d883a 	mov	r6,r22
  803ab8:	1009883a 	mov	r4,r2
  803abc:	08045dc0 	call	8045dc <memcpy>
  803ac0:	8080030b 	ldhu	r2,12(r16)
  803ac4:	00fedfc4 	movi	r3,-1153
  803ac8:	10c4703a 	and	r2,r2,r3
  803acc:	10802014 	ori	r2,r2,128
  803ad0:	8080030d 	sth	r2,12(r16)
  803ad4:	bd89883a 	add	r4,r23,r22
  803ad8:	9d8fc83a 	sub	r7,r19,r22
  803adc:	85c00415 	stw	r23,16(r16)
  803ae0:	84c00515 	stw	r19,20(r16)
  803ae4:	81000015 	stw	r4,0(r16)
  803ae8:	9027883a 	mov	r19,r18
  803aec:	81c00215 	stw	r7,8(r16)
  803af0:	902f883a 	mov	r23,r18
  803af4:	003f3b06 	br	8037e4 <__alt_mem_onchip_mem+0xff7837e4>
  803af8:	800b883a 	mov	r5,r16
  803afc:	a809883a 	mov	r4,r21
  803b00:	08055c40 	call	8055c4 <_fflush_r>
  803b04:	103fb926 	beq	r2,zero,8039ec <__alt_mem_onchip_mem+0xff7839ec>
  803b08:	003f6506 	br	8038a0 <__alt_mem_onchip_mem+0xff7838a0>
  803b0c:	a809883a 	mov	r4,r21
  803b10:	08049a80 	call	8049a8 <_realloc_r>
  803b14:	102f883a 	mov	r23,r2
  803b18:	103fee1e 	bne	r2,zero,803ad4 <__alt_mem_onchip_mem+0xff783ad4>
  803b1c:	81400417 	ldw	r5,16(r16)
  803b20:	a809883a 	mov	r4,r21
  803b24:	08057740 	call	805774 <_free_r>
  803b28:	8080030b 	ldhu	r2,12(r16)
  803b2c:	00ffdfc4 	movi	r3,-129
  803b30:	1884703a 	and	r2,r3,r2
  803b34:	00c00304 	movi	r3,12
  803b38:	a8c00015 	stw	r3,0(r21)
  803b3c:	003f5906 	br	8038a4 <__alt_mem_onchip_mem+0xff7838a4>
  803b40:	94c00044 	addi	r19,r18,1
  803b44:	02000044 	movi	r8,1
  803b48:	003f6006 	br	8038cc <__alt_mem_onchip_mem+0xff7838cc>
  803b4c:	00bfffc4 	movi	r2,-1
  803b50:	003f0306 	br	803760 <__alt_mem_onchip_mem+0xff783760>
  803b54:	00800304 	movi	r2,12
  803b58:	a8800015 	stw	r2,0(r21)
  803b5c:	8080030b 	ldhu	r2,12(r16)
  803b60:	003f5006 	br	8038a4 <__alt_mem_onchip_mem+0xff7838a4>

00803b64 <_fwalk>:
  803b64:	defff704 	addi	sp,sp,-36
  803b68:	dd000415 	stw	r20,16(sp)
  803b6c:	dfc00815 	stw	ra,32(sp)
  803b70:	ddc00715 	stw	r23,28(sp)
  803b74:	dd800615 	stw	r22,24(sp)
  803b78:	dd400515 	stw	r21,20(sp)
  803b7c:	dcc00315 	stw	r19,12(sp)
  803b80:	dc800215 	stw	r18,8(sp)
  803b84:	dc400115 	stw	r17,4(sp)
  803b88:	dc000015 	stw	r16,0(sp)
  803b8c:	2500b804 	addi	r20,r4,736
  803b90:	a0002326 	beq	r20,zero,803c20 <_fwalk+0xbc>
  803b94:	282b883a 	mov	r21,r5
  803b98:	002f883a 	mov	r23,zero
  803b9c:	05800044 	movi	r22,1
  803ba0:	04ffffc4 	movi	r19,-1
  803ba4:	a4400117 	ldw	r17,4(r20)
  803ba8:	a4800217 	ldw	r18,8(r20)
  803bac:	8c7fffc4 	addi	r17,r17,-1
  803bb0:	88000d16 	blt	r17,zero,803be8 <_fwalk+0x84>
  803bb4:	94000304 	addi	r16,r18,12
  803bb8:	94800384 	addi	r18,r18,14
  803bbc:	8080000b 	ldhu	r2,0(r16)
  803bc0:	8c7fffc4 	addi	r17,r17,-1
  803bc4:	813ffd04 	addi	r4,r16,-12
  803bc8:	b080042e 	bgeu	r22,r2,803bdc <_fwalk+0x78>
  803bcc:	9080000f 	ldh	r2,0(r18)
  803bd0:	14c00226 	beq	r2,r19,803bdc <_fwalk+0x78>
  803bd4:	a83ee83a 	callr	r21
  803bd8:	b8aeb03a 	or	r23,r23,r2
  803bdc:	84001a04 	addi	r16,r16,104
  803be0:	94801a04 	addi	r18,r18,104
  803be4:	8cfff51e 	bne	r17,r19,803bbc <__alt_mem_onchip_mem+0xff783bbc>
  803be8:	a5000017 	ldw	r20,0(r20)
  803bec:	a03fed1e 	bne	r20,zero,803ba4 <__alt_mem_onchip_mem+0xff783ba4>
  803bf0:	b805883a 	mov	r2,r23
  803bf4:	dfc00817 	ldw	ra,32(sp)
  803bf8:	ddc00717 	ldw	r23,28(sp)
  803bfc:	dd800617 	ldw	r22,24(sp)
  803c00:	dd400517 	ldw	r21,20(sp)
  803c04:	dd000417 	ldw	r20,16(sp)
  803c08:	dcc00317 	ldw	r19,12(sp)
  803c0c:	dc800217 	ldw	r18,8(sp)
  803c10:	dc400117 	ldw	r17,4(sp)
  803c14:	dc000017 	ldw	r16,0(sp)
  803c18:	dec00904 	addi	sp,sp,36
  803c1c:	f800283a 	ret
  803c20:	002f883a 	mov	r23,zero
  803c24:	003ff206 	br	803bf0 <__alt_mem_onchip_mem+0xff783bf0>

00803c28 <_fwalk_reent>:
  803c28:	defff704 	addi	sp,sp,-36
  803c2c:	dd000415 	stw	r20,16(sp)
  803c30:	dfc00815 	stw	ra,32(sp)
  803c34:	ddc00715 	stw	r23,28(sp)
  803c38:	dd800615 	stw	r22,24(sp)
  803c3c:	dd400515 	stw	r21,20(sp)
  803c40:	dcc00315 	stw	r19,12(sp)
  803c44:	dc800215 	stw	r18,8(sp)
  803c48:	dc400115 	stw	r17,4(sp)
  803c4c:	dc000015 	stw	r16,0(sp)
  803c50:	2500b804 	addi	r20,r4,736
  803c54:	a0002326 	beq	r20,zero,803ce4 <_fwalk_reent+0xbc>
  803c58:	282b883a 	mov	r21,r5
  803c5c:	2027883a 	mov	r19,r4
  803c60:	002f883a 	mov	r23,zero
  803c64:	05800044 	movi	r22,1
  803c68:	04bfffc4 	movi	r18,-1
  803c6c:	a4400117 	ldw	r17,4(r20)
  803c70:	a4000217 	ldw	r16,8(r20)
  803c74:	8c7fffc4 	addi	r17,r17,-1
  803c78:	88000c16 	blt	r17,zero,803cac <_fwalk_reent+0x84>
  803c7c:	84000304 	addi	r16,r16,12
  803c80:	8080000b 	ldhu	r2,0(r16)
  803c84:	8c7fffc4 	addi	r17,r17,-1
  803c88:	817ffd04 	addi	r5,r16,-12
  803c8c:	b080052e 	bgeu	r22,r2,803ca4 <_fwalk_reent+0x7c>
  803c90:	8080008f 	ldh	r2,2(r16)
  803c94:	9809883a 	mov	r4,r19
  803c98:	14800226 	beq	r2,r18,803ca4 <_fwalk_reent+0x7c>
  803c9c:	a83ee83a 	callr	r21
  803ca0:	b8aeb03a 	or	r23,r23,r2
  803ca4:	84001a04 	addi	r16,r16,104
  803ca8:	8cbff51e 	bne	r17,r18,803c80 <__alt_mem_onchip_mem+0xff783c80>
  803cac:	a5000017 	ldw	r20,0(r20)
  803cb0:	a03fee1e 	bne	r20,zero,803c6c <__alt_mem_onchip_mem+0xff783c6c>
  803cb4:	b805883a 	mov	r2,r23
  803cb8:	dfc00817 	ldw	ra,32(sp)
  803cbc:	ddc00717 	ldw	r23,28(sp)
  803cc0:	dd800617 	ldw	r22,24(sp)
  803cc4:	dd400517 	ldw	r21,20(sp)
  803cc8:	dd000417 	ldw	r20,16(sp)
  803ccc:	dcc00317 	ldw	r19,12(sp)
  803cd0:	dc800217 	ldw	r18,8(sp)
  803cd4:	dc400117 	ldw	r17,4(sp)
  803cd8:	dc000017 	ldw	r16,0(sp)
  803cdc:	dec00904 	addi	sp,sp,36
  803ce0:	f800283a 	ret
  803ce4:	002f883a 	mov	r23,zero
  803ce8:	003ff206 	br	803cb4 <__alt_mem_onchip_mem+0xff783cb4>

00803cec <_malloc_r>:
  803cec:	defff504 	addi	sp,sp,-44
  803cf0:	dc800315 	stw	r18,12(sp)
  803cf4:	dfc00a15 	stw	ra,40(sp)
  803cf8:	df000915 	stw	fp,36(sp)
  803cfc:	ddc00815 	stw	r23,32(sp)
  803d00:	dd800715 	stw	r22,28(sp)
  803d04:	dd400615 	stw	r21,24(sp)
  803d08:	dd000515 	stw	r20,20(sp)
  803d0c:	dcc00415 	stw	r19,16(sp)
  803d10:	dc400215 	stw	r17,8(sp)
  803d14:	dc000115 	stw	r16,4(sp)
  803d18:	288002c4 	addi	r2,r5,11
  803d1c:	00c00584 	movi	r3,22
  803d20:	2025883a 	mov	r18,r4
  803d24:	18807f2e 	bgeu	r3,r2,803f24 <_malloc_r+0x238>
  803d28:	047ffe04 	movi	r17,-8
  803d2c:	1462703a 	and	r17,r2,r17
  803d30:	8800a316 	blt	r17,zero,803fc0 <_malloc_r+0x2d4>
  803d34:	8940a236 	bltu	r17,r5,803fc0 <_malloc_r+0x2d4>
  803d38:	080678c0 	call	80678c <__malloc_lock>
  803d3c:	00807dc4 	movi	r2,503
  803d40:	1441e92e 	bgeu	r2,r17,8044e8 <_malloc_r+0x7fc>
  803d44:	8804d27a 	srli	r2,r17,9
  803d48:	1000a126 	beq	r2,zero,803fd0 <_malloc_r+0x2e4>
  803d4c:	00c00104 	movi	r3,4
  803d50:	18811e36 	bltu	r3,r2,8041cc <_malloc_r+0x4e0>
  803d54:	8804d1ba 	srli	r2,r17,6
  803d58:	12000e44 	addi	r8,r2,57
  803d5c:	11c00e04 	addi	r7,r2,56
  803d60:	4209883a 	add	r4,r8,r8
  803d64:	04c02074 	movhi	r19,129
  803d68:	2109883a 	add	r4,r4,r4
  803d6c:	9ceaa204 	addi	r19,r19,-21880
  803d70:	2109883a 	add	r4,r4,r4
  803d74:	9909883a 	add	r4,r19,r4
  803d78:	24000117 	ldw	r16,4(r4)
  803d7c:	213ffe04 	addi	r4,r4,-8
  803d80:	24009726 	beq	r4,r16,803fe0 <_malloc_r+0x2f4>
  803d84:	80800117 	ldw	r2,4(r16)
  803d88:	01bfff04 	movi	r6,-4
  803d8c:	014003c4 	movi	r5,15
  803d90:	1184703a 	and	r2,r2,r6
  803d94:	1447c83a 	sub	r3,r2,r17
  803d98:	28c00716 	blt	r5,r3,803db8 <_malloc_r+0xcc>
  803d9c:	1800920e 	bge	r3,zero,803fe8 <_malloc_r+0x2fc>
  803da0:	84000317 	ldw	r16,12(r16)
  803da4:	24008e26 	beq	r4,r16,803fe0 <_malloc_r+0x2f4>
  803da8:	80800117 	ldw	r2,4(r16)
  803dac:	1184703a 	and	r2,r2,r6
  803db0:	1447c83a 	sub	r3,r2,r17
  803db4:	28fff90e 	bge	r5,r3,803d9c <__alt_mem_onchip_mem+0xff783d9c>
  803db8:	3809883a 	mov	r4,r7
  803dbc:	01802074 	movhi	r6,129
  803dc0:	9c000417 	ldw	r16,16(r19)
  803dc4:	31aaa204 	addi	r6,r6,-21880
  803dc8:	32000204 	addi	r8,r6,8
  803dcc:	82013426 	beq	r16,r8,8042a0 <_malloc_r+0x5b4>
  803dd0:	80c00117 	ldw	r3,4(r16)
  803dd4:	00bfff04 	movi	r2,-4
  803dd8:	188e703a 	and	r7,r3,r2
  803ddc:	3c45c83a 	sub	r2,r7,r17
  803de0:	00c003c4 	movi	r3,15
  803de4:	18811f16 	blt	r3,r2,804264 <_malloc_r+0x578>
  803de8:	32000515 	stw	r8,20(r6)
  803dec:	32000415 	stw	r8,16(r6)
  803df0:	10007f0e 	bge	r2,zero,803ff0 <_malloc_r+0x304>
  803df4:	00807fc4 	movi	r2,511
  803df8:	11c0fd36 	bltu	r2,r7,8041f0 <_malloc_r+0x504>
  803dfc:	3806d0fa 	srli	r3,r7,3
  803e00:	01c00044 	movi	r7,1
  803e04:	30800117 	ldw	r2,4(r6)
  803e08:	19400044 	addi	r5,r3,1
  803e0c:	294b883a 	add	r5,r5,r5
  803e10:	1807d0ba 	srai	r3,r3,2
  803e14:	294b883a 	add	r5,r5,r5
  803e18:	294b883a 	add	r5,r5,r5
  803e1c:	298b883a 	add	r5,r5,r6
  803e20:	38c6983a 	sll	r3,r7,r3
  803e24:	29c00017 	ldw	r7,0(r5)
  803e28:	2a7ffe04 	addi	r9,r5,-8
  803e2c:	1886b03a 	or	r3,r3,r2
  803e30:	82400315 	stw	r9,12(r16)
  803e34:	81c00215 	stw	r7,8(r16)
  803e38:	30c00115 	stw	r3,4(r6)
  803e3c:	2c000015 	stw	r16,0(r5)
  803e40:	3c000315 	stw	r16,12(r7)
  803e44:	2005d0ba 	srai	r2,r4,2
  803e48:	01400044 	movi	r5,1
  803e4c:	288a983a 	sll	r5,r5,r2
  803e50:	19406f36 	bltu	r3,r5,804010 <_malloc_r+0x324>
  803e54:	28c4703a 	and	r2,r5,r3
  803e58:	10000a1e 	bne	r2,zero,803e84 <_malloc_r+0x198>
  803e5c:	00bfff04 	movi	r2,-4
  803e60:	294b883a 	add	r5,r5,r5
  803e64:	2088703a 	and	r4,r4,r2
  803e68:	28c4703a 	and	r2,r5,r3
  803e6c:	21000104 	addi	r4,r4,4
  803e70:	1000041e 	bne	r2,zero,803e84 <_malloc_r+0x198>
  803e74:	294b883a 	add	r5,r5,r5
  803e78:	28c4703a 	and	r2,r5,r3
  803e7c:	21000104 	addi	r4,r4,4
  803e80:	103ffc26 	beq	r2,zero,803e74 <__alt_mem_onchip_mem+0xff783e74>
  803e84:	02bfff04 	movi	r10,-4
  803e88:	024003c4 	movi	r9,15
  803e8c:	21800044 	addi	r6,r4,1
  803e90:	318d883a 	add	r6,r6,r6
  803e94:	318d883a 	add	r6,r6,r6
  803e98:	318d883a 	add	r6,r6,r6
  803e9c:	998d883a 	add	r6,r19,r6
  803ea0:	333ffe04 	addi	r12,r6,-8
  803ea4:	2017883a 	mov	r11,r4
  803ea8:	31800104 	addi	r6,r6,4
  803eac:	34000017 	ldw	r16,0(r6)
  803eb0:	31fffd04 	addi	r7,r6,-12
  803eb4:	81c0041e 	bne	r16,r7,803ec8 <_malloc_r+0x1dc>
  803eb8:	0000fb06 	br	8042a8 <_malloc_r+0x5bc>
  803ebc:	1801030e 	bge	r3,zero,8042cc <_malloc_r+0x5e0>
  803ec0:	84000317 	ldw	r16,12(r16)
  803ec4:	81c0f826 	beq	r16,r7,8042a8 <_malloc_r+0x5bc>
  803ec8:	80800117 	ldw	r2,4(r16)
  803ecc:	1284703a 	and	r2,r2,r10
  803ed0:	1447c83a 	sub	r3,r2,r17
  803ed4:	48fff90e 	bge	r9,r3,803ebc <__alt_mem_onchip_mem+0xff783ebc>
  803ed8:	80800317 	ldw	r2,12(r16)
  803edc:	81000217 	ldw	r4,8(r16)
  803ee0:	89400054 	ori	r5,r17,1
  803ee4:	81400115 	stw	r5,4(r16)
  803ee8:	20800315 	stw	r2,12(r4)
  803eec:	11000215 	stw	r4,8(r2)
  803ef0:	8463883a 	add	r17,r16,r17
  803ef4:	9c400515 	stw	r17,20(r19)
  803ef8:	9c400415 	stw	r17,16(r19)
  803efc:	18800054 	ori	r2,r3,1
  803f00:	88800115 	stw	r2,4(r17)
  803f04:	8a000315 	stw	r8,12(r17)
  803f08:	8a000215 	stw	r8,8(r17)
  803f0c:	88e3883a 	add	r17,r17,r3
  803f10:	88c00015 	stw	r3,0(r17)
  803f14:	9009883a 	mov	r4,r18
  803f18:	08067b00 	call	8067b0 <__malloc_unlock>
  803f1c:	80800204 	addi	r2,r16,8
  803f20:	00001b06 	br	803f90 <_malloc_r+0x2a4>
  803f24:	04400404 	movi	r17,16
  803f28:	89402536 	bltu	r17,r5,803fc0 <_malloc_r+0x2d4>
  803f2c:	080678c0 	call	80678c <__malloc_lock>
  803f30:	00800184 	movi	r2,6
  803f34:	01000084 	movi	r4,2
  803f38:	04c02074 	movhi	r19,129
  803f3c:	1085883a 	add	r2,r2,r2
  803f40:	9ceaa204 	addi	r19,r19,-21880
  803f44:	1085883a 	add	r2,r2,r2
  803f48:	9885883a 	add	r2,r19,r2
  803f4c:	14000117 	ldw	r16,4(r2)
  803f50:	10fffe04 	addi	r3,r2,-8
  803f54:	80c0d926 	beq	r16,r3,8042bc <_malloc_r+0x5d0>
  803f58:	80c00117 	ldw	r3,4(r16)
  803f5c:	81000317 	ldw	r4,12(r16)
  803f60:	00bfff04 	movi	r2,-4
  803f64:	1884703a 	and	r2,r3,r2
  803f68:	81400217 	ldw	r5,8(r16)
  803f6c:	8085883a 	add	r2,r16,r2
  803f70:	10c00117 	ldw	r3,4(r2)
  803f74:	29000315 	stw	r4,12(r5)
  803f78:	21400215 	stw	r5,8(r4)
  803f7c:	18c00054 	ori	r3,r3,1
  803f80:	10c00115 	stw	r3,4(r2)
  803f84:	9009883a 	mov	r4,r18
  803f88:	08067b00 	call	8067b0 <__malloc_unlock>
  803f8c:	80800204 	addi	r2,r16,8
  803f90:	dfc00a17 	ldw	ra,40(sp)
  803f94:	df000917 	ldw	fp,36(sp)
  803f98:	ddc00817 	ldw	r23,32(sp)
  803f9c:	dd800717 	ldw	r22,28(sp)
  803fa0:	dd400617 	ldw	r21,24(sp)
  803fa4:	dd000517 	ldw	r20,20(sp)
  803fa8:	dcc00417 	ldw	r19,16(sp)
  803fac:	dc800317 	ldw	r18,12(sp)
  803fb0:	dc400217 	ldw	r17,8(sp)
  803fb4:	dc000117 	ldw	r16,4(sp)
  803fb8:	dec00b04 	addi	sp,sp,44
  803fbc:	f800283a 	ret
  803fc0:	00800304 	movi	r2,12
  803fc4:	90800015 	stw	r2,0(r18)
  803fc8:	0005883a 	mov	r2,zero
  803fcc:	003ff006 	br	803f90 <__alt_mem_onchip_mem+0xff783f90>
  803fd0:	01002004 	movi	r4,128
  803fd4:	02001004 	movi	r8,64
  803fd8:	01c00fc4 	movi	r7,63
  803fdc:	003f6106 	br	803d64 <__alt_mem_onchip_mem+0xff783d64>
  803fe0:	4009883a 	mov	r4,r8
  803fe4:	003f7506 	br	803dbc <__alt_mem_onchip_mem+0xff783dbc>
  803fe8:	81000317 	ldw	r4,12(r16)
  803fec:	003fde06 	br	803f68 <__alt_mem_onchip_mem+0xff783f68>
  803ff0:	81c5883a 	add	r2,r16,r7
  803ff4:	11400117 	ldw	r5,4(r2)
  803ff8:	9009883a 	mov	r4,r18
  803ffc:	29400054 	ori	r5,r5,1
  804000:	11400115 	stw	r5,4(r2)
  804004:	08067b00 	call	8067b0 <__malloc_unlock>
  804008:	80800204 	addi	r2,r16,8
  80400c:	003fe006 	br	803f90 <__alt_mem_onchip_mem+0xff783f90>
  804010:	9c000217 	ldw	r16,8(r19)
  804014:	00bfff04 	movi	r2,-4
  804018:	85800117 	ldw	r22,4(r16)
  80401c:	b0ac703a 	and	r22,r22,r2
  804020:	b4400336 	bltu	r22,r17,804030 <_malloc_r+0x344>
  804024:	b445c83a 	sub	r2,r22,r17
  804028:	00c003c4 	movi	r3,15
  80402c:	18805d16 	blt	r3,r2,8041a4 <_malloc_r+0x4b8>
  804030:	05c02074 	movhi	r23,129
  804034:	00802074 	movhi	r2,129
  804038:	10b81c04 	addi	r2,r2,-8080
  80403c:	bdf0a304 	addi	r23,r23,-15732
  804040:	15400017 	ldw	r21,0(r2)
  804044:	b8c00017 	ldw	r3,0(r23)
  804048:	00bfffc4 	movi	r2,-1
  80404c:	858d883a 	add	r6,r16,r22
  804050:	8d6b883a 	add	r21,r17,r21
  804054:	1880ea26 	beq	r3,r2,804400 <_malloc_r+0x714>
  804058:	ad4403c4 	addi	r21,r21,4111
  80405c:	00bc0004 	movi	r2,-4096
  804060:	a8aa703a 	and	r21,r21,r2
  804064:	a80b883a 	mov	r5,r21
  804068:	9009883a 	mov	r4,r18
  80406c:	d9800015 	stw	r6,0(sp)
  804070:	0804f0c0 	call	804f0c <_sbrk_r>
  804074:	1029883a 	mov	r20,r2
  804078:	00bfffc4 	movi	r2,-1
  80407c:	d9800017 	ldw	r6,0(sp)
  804080:	a080e826 	beq	r20,r2,804424 <_malloc_r+0x738>
  804084:	a180a636 	bltu	r20,r6,804320 <_malloc_r+0x634>
  804088:	07002074 	movhi	fp,129
  80408c:	e7382504 	addi	fp,fp,-8044
  804090:	e0800017 	ldw	r2,0(fp)
  804094:	a887883a 	add	r3,r21,r2
  804098:	e0c00015 	stw	r3,0(fp)
  80409c:	3500e626 	beq	r6,r20,804438 <_malloc_r+0x74c>
  8040a0:	b9000017 	ldw	r4,0(r23)
  8040a4:	00bfffc4 	movi	r2,-1
  8040a8:	2080ee26 	beq	r4,r2,804464 <_malloc_r+0x778>
  8040ac:	a185c83a 	sub	r2,r20,r6
  8040b0:	10c5883a 	add	r2,r2,r3
  8040b4:	e0800015 	stw	r2,0(fp)
  8040b8:	a0c001cc 	andi	r3,r20,7
  8040bc:	1800bc26 	beq	r3,zero,8043b0 <_malloc_r+0x6c4>
  8040c0:	a0e9c83a 	sub	r20,r20,r3
  8040c4:	00840204 	movi	r2,4104
  8040c8:	a5000204 	addi	r20,r20,8
  8040cc:	10c7c83a 	sub	r3,r2,r3
  8040d0:	a545883a 	add	r2,r20,r21
  8040d4:	1083ffcc 	andi	r2,r2,4095
  8040d8:	18abc83a 	sub	r21,r3,r2
  8040dc:	a80b883a 	mov	r5,r21
  8040e0:	9009883a 	mov	r4,r18
  8040e4:	0804f0c0 	call	804f0c <_sbrk_r>
  8040e8:	00ffffc4 	movi	r3,-1
  8040ec:	10c0e126 	beq	r2,r3,804474 <_malloc_r+0x788>
  8040f0:	1505c83a 	sub	r2,r2,r20
  8040f4:	1545883a 	add	r2,r2,r21
  8040f8:	10800054 	ori	r2,r2,1
  8040fc:	e0c00017 	ldw	r3,0(fp)
  804100:	9d000215 	stw	r20,8(r19)
  804104:	a0800115 	stw	r2,4(r20)
  804108:	a8c7883a 	add	r3,r21,r3
  80410c:	e0c00015 	stw	r3,0(fp)
  804110:	84c00e26 	beq	r16,r19,80414c <_malloc_r+0x460>
  804114:	018003c4 	movi	r6,15
  804118:	3580a72e 	bgeu	r6,r22,8043b8 <_malloc_r+0x6cc>
  80411c:	81400117 	ldw	r5,4(r16)
  804120:	013ffe04 	movi	r4,-8
  804124:	b0bffd04 	addi	r2,r22,-12
  804128:	1104703a 	and	r2,r2,r4
  80412c:	2900004c 	andi	r4,r5,1
  804130:	2088b03a 	or	r4,r4,r2
  804134:	81000115 	stw	r4,4(r16)
  804138:	01400144 	movi	r5,5
  80413c:	8089883a 	add	r4,r16,r2
  804140:	21400115 	stw	r5,4(r4)
  804144:	21400215 	stw	r5,8(r4)
  804148:	3080cd36 	bltu	r6,r2,804480 <_malloc_r+0x794>
  80414c:	00802074 	movhi	r2,129
  804150:	10b81b04 	addi	r2,r2,-8084
  804154:	11000017 	ldw	r4,0(r2)
  804158:	20c0012e 	bgeu	r4,r3,804160 <_malloc_r+0x474>
  80415c:	10c00015 	stw	r3,0(r2)
  804160:	00802074 	movhi	r2,129
  804164:	10b81a04 	addi	r2,r2,-8088
  804168:	11000017 	ldw	r4,0(r2)
  80416c:	9c000217 	ldw	r16,8(r19)
  804170:	20c0012e 	bgeu	r4,r3,804178 <_malloc_r+0x48c>
  804174:	10c00015 	stw	r3,0(r2)
  804178:	80c00117 	ldw	r3,4(r16)
  80417c:	00bfff04 	movi	r2,-4
  804180:	1886703a 	and	r3,r3,r2
  804184:	1c45c83a 	sub	r2,r3,r17
  804188:	1c400236 	bltu	r3,r17,804194 <_malloc_r+0x4a8>
  80418c:	00c003c4 	movi	r3,15
  804190:	18800416 	blt	r3,r2,8041a4 <_malloc_r+0x4b8>
  804194:	9009883a 	mov	r4,r18
  804198:	08067b00 	call	8067b0 <__malloc_unlock>
  80419c:	0005883a 	mov	r2,zero
  8041a0:	003f7b06 	br	803f90 <__alt_mem_onchip_mem+0xff783f90>
  8041a4:	88c00054 	ori	r3,r17,1
  8041a8:	80c00115 	stw	r3,4(r16)
  8041ac:	8463883a 	add	r17,r16,r17
  8041b0:	10800054 	ori	r2,r2,1
  8041b4:	9c400215 	stw	r17,8(r19)
  8041b8:	88800115 	stw	r2,4(r17)
  8041bc:	9009883a 	mov	r4,r18
  8041c0:	08067b00 	call	8067b0 <__malloc_unlock>
  8041c4:	80800204 	addi	r2,r16,8
  8041c8:	003f7106 	br	803f90 <__alt_mem_onchip_mem+0xff783f90>
  8041cc:	00c00504 	movi	r3,20
  8041d0:	18804a2e 	bgeu	r3,r2,8042fc <_malloc_r+0x610>
  8041d4:	00c01504 	movi	r3,84
  8041d8:	18806e36 	bltu	r3,r2,804394 <_malloc_r+0x6a8>
  8041dc:	8804d33a 	srli	r2,r17,12
  8041e0:	12001bc4 	addi	r8,r2,111
  8041e4:	11c01b84 	addi	r7,r2,110
  8041e8:	4209883a 	add	r4,r8,r8
  8041ec:	003edd06 	br	803d64 <__alt_mem_onchip_mem+0xff783d64>
  8041f0:	3804d27a 	srli	r2,r7,9
  8041f4:	00c00104 	movi	r3,4
  8041f8:	1880442e 	bgeu	r3,r2,80430c <_malloc_r+0x620>
  8041fc:	00c00504 	movi	r3,20
  804200:	18808136 	bltu	r3,r2,804408 <_malloc_r+0x71c>
  804204:	11401704 	addi	r5,r2,92
  804208:	10c016c4 	addi	r3,r2,91
  80420c:	294b883a 	add	r5,r5,r5
  804210:	294b883a 	add	r5,r5,r5
  804214:	294b883a 	add	r5,r5,r5
  804218:	994b883a 	add	r5,r19,r5
  80421c:	28800017 	ldw	r2,0(r5)
  804220:	01802074 	movhi	r6,129
  804224:	297ffe04 	addi	r5,r5,-8
  804228:	31aaa204 	addi	r6,r6,-21880
  80422c:	28806526 	beq	r5,r2,8043c4 <_malloc_r+0x6d8>
  804230:	01bfff04 	movi	r6,-4
  804234:	10c00117 	ldw	r3,4(r2)
  804238:	1986703a 	and	r3,r3,r6
  80423c:	38c0022e 	bgeu	r7,r3,804248 <_malloc_r+0x55c>
  804240:	10800217 	ldw	r2,8(r2)
  804244:	28bffb1e 	bne	r5,r2,804234 <__alt_mem_onchip_mem+0xff784234>
  804248:	11400317 	ldw	r5,12(r2)
  80424c:	98c00117 	ldw	r3,4(r19)
  804250:	81400315 	stw	r5,12(r16)
  804254:	80800215 	stw	r2,8(r16)
  804258:	2c000215 	stw	r16,8(r5)
  80425c:	14000315 	stw	r16,12(r2)
  804260:	003ef806 	br	803e44 <__alt_mem_onchip_mem+0xff783e44>
  804264:	88c00054 	ori	r3,r17,1
  804268:	80c00115 	stw	r3,4(r16)
  80426c:	8463883a 	add	r17,r16,r17
  804270:	34400515 	stw	r17,20(r6)
  804274:	34400415 	stw	r17,16(r6)
  804278:	10c00054 	ori	r3,r2,1
  80427c:	8a000315 	stw	r8,12(r17)
  804280:	8a000215 	stw	r8,8(r17)
  804284:	88c00115 	stw	r3,4(r17)
  804288:	88a3883a 	add	r17,r17,r2
  80428c:	88800015 	stw	r2,0(r17)
  804290:	9009883a 	mov	r4,r18
  804294:	08067b00 	call	8067b0 <__malloc_unlock>
  804298:	80800204 	addi	r2,r16,8
  80429c:	003f3c06 	br	803f90 <__alt_mem_onchip_mem+0xff783f90>
  8042a0:	30c00117 	ldw	r3,4(r6)
  8042a4:	003ee706 	br	803e44 <__alt_mem_onchip_mem+0xff783e44>
  8042a8:	5ac00044 	addi	r11,r11,1
  8042ac:	588000cc 	andi	r2,r11,3
  8042b0:	31800204 	addi	r6,r6,8
  8042b4:	103efd1e 	bne	r2,zero,803eac <__alt_mem_onchip_mem+0xff783eac>
  8042b8:	00002406 	br	80434c <_malloc_r+0x660>
  8042bc:	14000317 	ldw	r16,12(r2)
  8042c0:	143f251e 	bne	r2,r16,803f58 <__alt_mem_onchip_mem+0xff783f58>
  8042c4:	21000084 	addi	r4,r4,2
  8042c8:	003ebc06 	br	803dbc <__alt_mem_onchip_mem+0xff783dbc>
  8042cc:	8085883a 	add	r2,r16,r2
  8042d0:	10c00117 	ldw	r3,4(r2)
  8042d4:	81000317 	ldw	r4,12(r16)
  8042d8:	81400217 	ldw	r5,8(r16)
  8042dc:	18c00054 	ori	r3,r3,1
  8042e0:	10c00115 	stw	r3,4(r2)
  8042e4:	29000315 	stw	r4,12(r5)
  8042e8:	21400215 	stw	r5,8(r4)
  8042ec:	9009883a 	mov	r4,r18
  8042f0:	08067b00 	call	8067b0 <__malloc_unlock>
  8042f4:	80800204 	addi	r2,r16,8
  8042f8:	003f2506 	br	803f90 <__alt_mem_onchip_mem+0xff783f90>
  8042fc:	12001704 	addi	r8,r2,92
  804300:	11c016c4 	addi	r7,r2,91
  804304:	4209883a 	add	r4,r8,r8
  804308:	003e9606 	br	803d64 <__alt_mem_onchip_mem+0xff783d64>
  80430c:	3804d1ba 	srli	r2,r7,6
  804310:	11400e44 	addi	r5,r2,57
  804314:	10c00e04 	addi	r3,r2,56
  804318:	294b883a 	add	r5,r5,r5
  80431c:	003fbc06 	br	804210 <__alt_mem_onchip_mem+0xff784210>
  804320:	84ff5926 	beq	r16,r19,804088 <__alt_mem_onchip_mem+0xff784088>
  804324:	00802074 	movhi	r2,129
  804328:	10aaa204 	addi	r2,r2,-21880
  80432c:	14000217 	ldw	r16,8(r2)
  804330:	00bfff04 	movi	r2,-4
  804334:	80c00117 	ldw	r3,4(r16)
  804338:	1886703a 	and	r3,r3,r2
  80433c:	003f9106 	br	804184 <__alt_mem_onchip_mem+0xff784184>
  804340:	60800217 	ldw	r2,8(r12)
  804344:	213fffc4 	addi	r4,r4,-1
  804348:	1300651e 	bne	r2,r12,8044e0 <_malloc_r+0x7f4>
  80434c:	208000cc 	andi	r2,r4,3
  804350:	633ffe04 	addi	r12,r12,-8
  804354:	103ffa1e 	bne	r2,zero,804340 <__alt_mem_onchip_mem+0xff784340>
  804358:	98800117 	ldw	r2,4(r19)
  80435c:	0146303a 	nor	r3,zero,r5
  804360:	1884703a 	and	r2,r3,r2
  804364:	98800115 	stw	r2,4(r19)
  804368:	294b883a 	add	r5,r5,r5
  80436c:	117f2836 	bltu	r2,r5,804010 <__alt_mem_onchip_mem+0xff784010>
  804370:	283f2726 	beq	r5,zero,804010 <__alt_mem_onchip_mem+0xff784010>
  804374:	2886703a 	and	r3,r5,r2
  804378:	5809883a 	mov	r4,r11
  80437c:	183ec31e 	bne	r3,zero,803e8c <__alt_mem_onchip_mem+0xff783e8c>
  804380:	294b883a 	add	r5,r5,r5
  804384:	2886703a 	and	r3,r5,r2
  804388:	21000104 	addi	r4,r4,4
  80438c:	183ffc26 	beq	r3,zero,804380 <__alt_mem_onchip_mem+0xff784380>
  804390:	003ebe06 	br	803e8c <__alt_mem_onchip_mem+0xff783e8c>
  804394:	00c05504 	movi	r3,340
  804398:	18801236 	bltu	r3,r2,8043e4 <_malloc_r+0x6f8>
  80439c:	8804d3fa 	srli	r2,r17,15
  8043a0:	12001e04 	addi	r8,r2,120
  8043a4:	11c01dc4 	addi	r7,r2,119
  8043a8:	4209883a 	add	r4,r8,r8
  8043ac:	003e6d06 	br	803d64 <__alt_mem_onchip_mem+0xff783d64>
  8043b0:	00c40004 	movi	r3,4096
  8043b4:	003f4606 	br	8040d0 <__alt_mem_onchip_mem+0xff7840d0>
  8043b8:	00800044 	movi	r2,1
  8043bc:	a0800115 	stw	r2,4(r20)
  8043c0:	003f7406 	br	804194 <__alt_mem_onchip_mem+0xff784194>
  8043c4:	1805d0ba 	srai	r2,r3,2
  8043c8:	01c00044 	movi	r7,1
  8043cc:	30c00117 	ldw	r3,4(r6)
  8043d0:	388e983a 	sll	r7,r7,r2
  8043d4:	2805883a 	mov	r2,r5
  8043d8:	38c6b03a 	or	r3,r7,r3
  8043dc:	30c00115 	stw	r3,4(r6)
  8043e0:	003f9b06 	br	804250 <__alt_mem_onchip_mem+0xff784250>
  8043e4:	00c15504 	movi	r3,1364
  8043e8:	18801a36 	bltu	r3,r2,804454 <_malloc_r+0x768>
  8043ec:	8804d4ba 	srli	r2,r17,18
  8043f0:	12001f44 	addi	r8,r2,125
  8043f4:	11c01f04 	addi	r7,r2,124
  8043f8:	4209883a 	add	r4,r8,r8
  8043fc:	003e5906 	br	803d64 <__alt_mem_onchip_mem+0xff783d64>
  804400:	ad400404 	addi	r21,r21,16
  804404:	003f1706 	br	804064 <__alt_mem_onchip_mem+0xff784064>
  804408:	00c01504 	movi	r3,84
  80440c:	18802336 	bltu	r3,r2,80449c <_malloc_r+0x7b0>
  804410:	3804d33a 	srli	r2,r7,12
  804414:	11401bc4 	addi	r5,r2,111
  804418:	10c01b84 	addi	r3,r2,110
  80441c:	294b883a 	add	r5,r5,r5
  804420:	003f7b06 	br	804210 <__alt_mem_onchip_mem+0xff784210>
  804424:	9c000217 	ldw	r16,8(r19)
  804428:	00bfff04 	movi	r2,-4
  80442c:	80c00117 	ldw	r3,4(r16)
  804430:	1886703a 	and	r3,r3,r2
  804434:	003f5306 	br	804184 <__alt_mem_onchip_mem+0xff784184>
  804438:	3083ffcc 	andi	r2,r6,4095
  80443c:	103f181e 	bne	r2,zero,8040a0 <__alt_mem_onchip_mem+0xff7840a0>
  804440:	99000217 	ldw	r4,8(r19)
  804444:	b545883a 	add	r2,r22,r21
  804448:	10800054 	ori	r2,r2,1
  80444c:	20800115 	stw	r2,4(r4)
  804450:	003f3e06 	br	80414c <__alt_mem_onchip_mem+0xff78414c>
  804454:	01003f84 	movi	r4,254
  804458:	02001fc4 	movi	r8,127
  80445c:	01c01f84 	movi	r7,126
  804460:	003e4006 	br	803d64 <__alt_mem_onchip_mem+0xff783d64>
  804464:	00802074 	movhi	r2,129
  804468:	10b0a304 	addi	r2,r2,-15732
  80446c:	15000015 	stw	r20,0(r2)
  804470:	003f1106 	br	8040b8 <__alt_mem_onchip_mem+0xff7840b8>
  804474:	00800044 	movi	r2,1
  804478:	002b883a 	mov	r21,zero
  80447c:	003f1f06 	br	8040fc <__alt_mem_onchip_mem+0xff7840fc>
  804480:	81400204 	addi	r5,r16,8
  804484:	9009883a 	mov	r4,r18
  804488:	08057740 	call	805774 <_free_r>
  80448c:	00802074 	movhi	r2,129
  804490:	10b82504 	addi	r2,r2,-8044
  804494:	10c00017 	ldw	r3,0(r2)
  804498:	003f2c06 	br	80414c <__alt_mem_onchip_mem+0xff78414c>
  80449c:	00c05504 	movi	r3,340
  8044a0:	18800536 	bltu	r3,r2,8044b8 <_malloc_r+0x7cc>
  8044a4:	3804d3fa 	srli	r2,r7,15
  8044a8:	11401e04 	addi	r5,r2,120
  8044ac:	10c01dc4 	addi	r3,r2,119
  8044b0:	294b883a 	add	r5,r5,r5
  8044b4:	003f5606 	br	804210 <__alt_mem_onchip_mem+0xff784210>
  8044b8:	00c15504 	movi	r3,1364
  8044bc:	18800536 	bltu	r3,r2,8044d4 <_malloc_r+0x7e8>
  8044c0:	3804d4ba 	srli	r2,r7,18
  8044c4:	11401f44 	addi	r5,r2,125
  8044c8:	10c01f04 	addi	r3,r2,124
  8044cc:	294b883a 	add	r5,r5,r5
  8044d0:	003f4f06 	br	804210 <__alt_mem_onchip_mem+0xff784210>
  8044d4:	01403f84 	movi	r5,254
  8044d8:	00c01f84 	movi	r3,126
  8044dc:	003f4c06 	br	804210 <__alt_mem_onchip_mem+0xff784210>
  8044e0:	98800117 	ldw	r2,4(r19)
  8044e4:	003fa006 	br	804368 <__alt_mem_onchip_mem+0xff784368>
  8044e8:	8808d0fa 	srli	r4,r17,3
  8044ec:	20800044 	addi	r2,r4,1
  8044f0:	1085883a 	add	r2,r2,r2
  8044f4:	003e9006 	br	803f38 <__alt_mem_onchip_mem+0xff783f38>

008044f8 <memchr>:
  8044f8:	208000cc 	andi	r2,r4,3
  8044fc:	280f883a 	mov	r7,r5
  804500:	10003426 	beq	r2,zero,8045d4 <memchr+0xdc>
  804504:	30bfffc4 	addi	r2,r6,-1
  804508:	30001a26 	beq	r6,zero,804574 <memchr+0x7c>
  80450c:	20c00003 	ldbu	r3,0(r4)
  804510:	29803fcc 	andi	r6,r5,255
  804514:	30c0051e 	bne	r6,r3,80452c <memchr+0x34>
  804518:	00001806 	br	80457c <memchr+0x84>
  80451c:	10001526 	beq	r2,zero,804574 <memchr+0x7c>
  804520:	20c00003 	ldbu	r3,0(r4)
  804524:	10bfffc4 	addi	r2,r2,-1
  804528:	30c01426 	beq	r6,r3,80457c <memchr+0x84>
  80452c:	21000044 	addi	r4,r4,1
  804530:	20c000cc 	andi	r3,r4,3
  804534:	183ff91e 	bne	r3,zero,80451c <__alt_mem_onchip_mem+0xff78451c>
  804538:	020000c4 	movi	r8,3
  80453c:	40801136 	bltu	r8,r2,804584 <memchr+0x8c>
  804540:	10000c26 	beq	r2,zero,804574 <memchr+0x7c>
  804544:	20c00003 	ldbu	r3,0(r4)
  804548:	29403fcc 	andi	r5,r5,255
  80454c:	28c00b26 	beq	r5,r3,80457c <memchr+0x84>
  804550:	20c00044 	addi	r3,r4,1
  804554:	39803fcc 	andi	r6,r7,255
  804558:	2089883a 	add	r4,r4,r2
  80455c:	00000306 	br	80456c <memchr+0x74>
  804560:	18c00044 	addi	r3,r3,1
  804564:	197fffc3 	ldbu	r5,-1(r3)
  804568:	31400526 	beq	r6,r5,804580 <memchr+0x88>
  80456c:	1805883a 	mov	r2,r3
  804570:	20fffb1e 	bne	r4,r3,804560 <__alt_mem_onchip_mem+0xff784560>
  804574:	0005883a 	mov	r2,zero
  804578:	f800283a 	ret
  80457c:	2005883a 	mov	r2,r4
  804580:	f800283a 	ret
  804584:	28c03fcc 	andi	r3,r5,255
  804588:	1812923a 	slli	r9,r3,8
  80458c:	02ffbff4 	movhi	r11,65279
  804590:	02a02074 	movhi	r10,32897
  804594:	48d2b03a 	or	r9,r9,r3
  804598:	4806943a 	slli	r3,r9,16
  80459c:	5affbfc4 	addi	r11,r11,-257
  8045a0:	52a02004 	addi	r10,r10,-32640
  8045a4:	48d2b03a 	or	r9,r9,r3
  8045a8:	20c00017 	ldw	r3,0(r4)
  8045ac:	48c6f03a 	xor	r3,r9,r3
  8045b0:	1acd883a 	add	r6,r3,r11
  8045b4:	00c6303a 	nor	r3,zero,r3
  8045b8:	30c6703a 	and	r3,r6,r3
  8045bc:	1a86703a 	and	r3,r3,r10
  8045c0:	183fe01e 	bne	r3,zero,804544 <__alt_mem_onchip_mem+0xff784544>
  8045c4:	10bfff04 	addi	r2,r2,-4
  8045c8:	21000104 	addi	r4,r4,4
  8045cc:	40bff636 	bltu	r8,r2,8045a8 <__alt_mem_onchip_mem+0xff7845a8>
  8045d0:	003fdb06 	br	804540 <__alt_mem_onchip_mem+0xff784540>
  8045d4:	3005883a 	mov	r2,r6
  8045d8:	003fd706 	br	804538 <__alt_mem_onchip_mem+0xff784538>

008045dc <memcpy>:
  8045dc:	defffd04 	addi	sp,sp,-12
  8045e0:	dfc00215 	stw	ra,8(sp)
  8045e4:	dc400115 	stw	r17,4(sp)
  8045e8:	dc000015 	stw	r16,0(sp)
  8045ec:	00c003c4 	movi	r3,15
  8045f0:	2005883a 	mov	r2,r4
  8045f4:	1980452e 	bgeu	r3,r6,80470c <memcpy+0x130>
  8045f8:	2906b03a 	or	r3,r5,r4
  8045fc:	18c000cc 	andi	r3,r3,3
  804600:	1800441e 	bne	r3,zero,804714 <memcpy+0x138>
  804604:	347ffc04 	addi	r17,r6,-16
  804608:	8822d13a 	srli	r17,r17,4
  80460c:	28c00104 	addi	r3,r5,4
  804610:	23400104 	addi	r13,r4,4
  804614:	8820913a 	slli	r16,r17,4
  804618:	2b000204 	addi	r12,r5,8
  80461c:	22c00204 	addi	r11,r4,8
  804620:	84000504 	addi	r16,r16,20
  804624:	2a800304 	addi	r10,r5,12
  804628:	22400304 	addi	r9,r4,12
  80462c:	2c21883a 	add	r16,r5,r16
  804630:	2811883a 	mov	r8,r5
  804634:	200f883a 	mov	r7,r4
  804638:	41000017 	ldw	r4,0(r8)
  80463c:	1fc00017 	ldw	ra,0(r3)
  804640:	63c00017 	ldw	r15,0(r12)
  804644:	39000015 	stw	r4,0(r7)
  804648:	53800017 	ldw	r14,0(r10)
  80464c:	6fc00015 	stw	ra,0(r13)
  804650:	5bc00015 	stw	r15,0(r11)
  804654:	4b800015 	stw	r14,0(r9)
  804658:	18c00404 	addi	r3,r3,16
  80465c:	39c00404 	addi	r7,r7,16
  804660:	42000404 	addi	r8,r8,16
  804664:	6b400404 	addi	r13,r13,16
  804668:	63000404 	addi	r12,r12,16
  80466c:	5ac00404 	addi	r11,r11,16
  804670:	52800404 	addi	r10,r10,16
  804674:	4a400404 	addi	r9,r9,16
  804678:	1c3fef1e 	bne	r3,r16,804638 <__alt_mem_onchip_mem+0xff784638>
  80467c:	89c00044 	addi	r7,r17,1
  804680:	380e913a 	slli	r7,r7,4
  804684:	310003cc 	andi	r4,r6,15
  804688:	02c000c4 	movi	r11,3
  80468c:	11c7883a 	add	r3,r2,r7
  804690:	29cb883a 	add	r5,r5,r7
  804694:	5900212e 	bgeu	r11,r4,80471c <memcpy+0x140>
  804698:	1813883a 	mov	r9,r3
  80469c:	2811883a 	mov	r8,r5
  8046a0:	200f883a 	mov	r7,r4
  8046a4:	42800017 	ldw	r10,0(r8)
  8046a8:	4a400104 	addi	r9,r9,4
  8046ac:	39ffff04 	addi	r7,r7,-4
  8046b0:	4abfff15 	stw	r10,-4(r9)
  8046b4:	42000104 	addi	r8,r8,4
  8046b8:	59fffa36 	bltu	r11,r7,8046a4 <__alt_mem_onchip_mem+0xff7846a4>
  8046bc:	213fff04 	addi	r4,r4,-4
  8046c0:	2008d0ba 	srli	r4,r4,2
  8046c4:	318000cc 	andi	r6,r6,3
  8046c8:	21000044 	addi	r4,r4,1
  8046cc:	2109883a 	add	r4,r4,r4
  8046d0:	2109883a 	add	r4,r4,r4
  8046d4:	1907883a 	add	r3,r3,r4
  8046d8:	290b883a 	add	r5,r5,r4
  8046dc:	30000626 	beq	r6,zero,8046f8 <memcpy+0x11c>
  8046e0:	198d883a 	add	r6,r3,r6
  8046e4:	29c00003 	ldbu	r7,0(r5)
  8046e8:	18c00044 	addi	r3,r3,1
  8046ec:	29400044 	addi	r5,r5,1
  8046f0:	19ffffc5 	stb	r7,-1(r3)
  8046f4:	19bffb1e 	bne	r3,r6,8046e4 <__alt_mem_onchip_mem+0xff7846e4>
  8046f8:	dfc00217 	ldw	ra,8(sp)
  8046fc:	dc400117 	ldw	r17,4(sp)
  804700:	dc000017 	ldw	r16,0(sp)
  804704:	dec00304 	addi	sp,sp,12
  804708:	f800283a 	ret
  80470c:	2007883a 	mov	r3,r4
  804710:	003ff206 	br	8046dc <__alt_mem_onchip_mem+0xff7846dc>
  804714:	2007883a 	mov	r3,r4
  804718:	003ff106 	br	8046e0 <__alt_mem_onchip_mem+0xff7846e0>
  80471c:	200d883a 	mov	r6,r4
  804720:	003fee06 	br	8046dc <__alt_mem_onchip_mem+0xff7846dc>

00804724 <memmove>:
  804724:	2005883a 	mov	r2,r4
  804728:	29000b2e 	bgeu	r5,r4,804758 <memmove+0x34>
  80472c:	298f883a 	add	r7,r5,r6
  804730:	21c0092e 	bgeu	r4,r7,804758 <memmove+0x34>
  804734:	2187883a 	add	r3,r4,r6
  804738:	198bc83a 	sub	r5,r3,r6
  80473c:	30004826 	beq	r6,zero,804860 <memmove+0x13c>
  804740:	39ffffc4 	addi	r7,r7,-1
  804744:	39000003 	ldbu	r4,0(r7)
  804748:	18ffffc4 	addi	r3,r3,-1
  80474c:	19000005 	stb	r4,0(r3)
  804750:	28fffb1e 	bne	r5,r3,804740 <__alt_mem_onchip_mem+0xff784740>
  804754:	f800283a 	ret
  804758:	00c003c4 	movi	r3,15
  80475c:	1980412e 	bgeu	r3,r6,804864 <memmove+0x140>
  804760:	2886b03a 	or	r3,r5,r2
  804764:	18c000cc 	andi	r3,r3,3
  804768:	1800401e 	bne	r3,zero,80486c <memmove+0x148>
  80476c:	33fffc04 	addi	r15,r6,-16
  804770:	781ed13a 	srli	r15,r15,4
  804774:	28c00104 	addi	r3,r5,4
  804778:	13400104 	addi	r13,r2,4
  80477c:	781c913a 	slli	r14,r15,4
  804780:	2b000204 	addi	r12,r5,8
  804784:	12c00204 	addi	r11,r2,8
  804788:	73800504 	addi	r14,r14,20
  80478c:	2a800304 	addi	r10,r5,12
  804790:	12400304 	addi	r9,r2,12
  804794:	2b9d883a 	add	r14,r5,r14
  804798:	2811883a 	mov	r8,r5
  80479c:	100f883a 	mov	r7,r2
  8047a0:	41000017 	ldw	r4,0(r8)
  8047a4:	39c00404 	addi	r7,r7,16
  8047a8:	18c00404 	addi	r3,r3,16
  8047ac:	393ffc15 	stw	r4,-16(r7)
  8047b0:	193ffc17 	ldw	r4,-16(r3)
  8047b4:	6b400404 	addi	r13,r13,16
  8047b8:	5ac00404 	addi	r11,r11,16
  8047bc:	693ffc15 	stw	r4,-16(r13)
  8047c0:	61000017 	ldw	r4,0(r12)
  8047c4:	4a400404 	addi	r9,r9,16
  8047c8:	42000404 	addi	r8,r8,16
  8047cc:	593ffc15 	stw	r4,-16(r11)
  8047d0:	51000017 	ldw	r4,0(r10)
  8047d4:	63000404 	addi	r12,r12,16
  8047d8:	52800404 	addi	r10,r10,16
  8047dc:	493ffc15 	stw	r4,-16(r9)
  8047e0:	1bbfef1e 	bne	r3,r14,8047a0 <__alt_mem_onchip_mem+0xff7847a0>
  8047e4:	79000044 	addi	r4,r15,1
  8047e8:	2008913a 	slli	r4,r4,4
  8047ec:	328003cc 	andi	r10,r6,15
  8047f0:	02c000c4 	movi	r11,3
  8047f4:	1107883a 	add	r3,r2,r4
  8047f8:	290b883a 	add	r5,r5,r4
  8047fc:	5a801e2e 	bgeu	r11,r10,804878 <memmove+0x154>
  804800:	1813883a 	mov	r9,r3
  804804:	2811883a 	mov	r8,r5
  804808:	500f883a 	mov	r7,r10
  80480c:	41000017 	ldw	r4,0(r8)
  804810:	4a400104 	addi	r9,r9,4
  804814:	39ffff04 	addi	r7,r7,-4
  804818:	493fff15 	stw	r4,-4(r9)
  80481c:	42000104 	addi	r8,r8,4
  804820:	59fffa36 	bltu	r11,r7,80480c <__alt_mem_onchip_mem+0xff78480c>
  804824:	513fff04 	addi	r4,r10,-4
  804828:	2008d0ba 	srli	r4,r4,2
  80482c:	318000cc 	andi	r6,r6,3
  804830:	21000044 	addi	r4,r4,1
  804834:	2109883a 	add	r4,r4,r4
  804838:	2109883a 	add	r4,r4,r4
  80483c:	1907883a 	add	r3,r3,r4
  804840:	290b883a 	add	r5,r5,r4
  804844:	30000b26 	beq	r6,zero,804874 <memmove+0x150>
  804848:	198d883a 	add	r6,r3,r6
  80484c:	29c00003 	ldbu	r7,0(r5)
  804850:	18c00044 	addi	r3,r3,1
  804854:	29400044 	addi	r5,r5,1
  804858:	19ffffc5 	stb	r7,-1(r3)
  80485c:	19bffb1e 	bne	r3,r6,80484c <__alt_mem_onchip_mem+0xff78484c>
  804860:	f800283a 	ret
  804864:	1007883a 	mov	r3,r2
  804868:	003ff606 	br	804844 <__alt_mem_onchip_mem+0xff784844>
  80486c:	1007883a 	mov	r3,r2
  804870:	003ff506 	br	804848 <__alt_mem_onchip_mem+0xff784848>
  804874:	f800283a 	ret
  804878:	500d883a 	mov	r6,r10
  80487c:	003ff106 	br	804844 <__alt_mem_onchip_mem+0xff784844>

00804880 <memset>:
  804880:	20c000cc 	andi	r3,r4,3
  804884:	2005883a 	mov	r2,r4
  804888:	18004426 	beq	r3,zero,80499c <memset+0x11c>
  80488c:	31ffffc4 	addi	r7,r6,-1
  804890:	30004026 	beq	r6,zero,804994 <memset+0x114>
  804894:	2813883a 	mov	r9,r5
  804898:	200d883a 	mov	r6,r4
  80489c:	2007883a 	mov	r3,r4
  8048a0:	00000406 	br	8048b4 <memset+0x34>
  8048a4:	3a3fffc4 	addi	r8,r7,-1
  8048a8:	31800044 	addi	r6,r6,1
  8048ac:	38003926 	beq	r7,zero,804994 <memset+0x114>
  8048b0:	400f883a 	mov	r7,r8
  8048b4:	18c00044 	addi	r3,r3,1
  8048b8:	32400005 	stb	r9,0(r6)
  8048bc:	1a0000cc 	andi	r8,r3,3
  8048c0:	403ff81e 	bne	r8,zero,8048a4 <__alt_mem_onchip_mem+0xff7848a4>
  8048c4:	010000c4 	movi	r4,3
  8048c8:	21c02d2e 	bgeu	r4,r7,804980 <memset+0x100>
  8048cc:	29003fcc 	andi	r4,r5,255
  8048d0:	200c923a 	slli	r6,r4,8
  8048d4:	3108b03a 	or	r4,r6,r4
  8048d8:	200c943a 	slli	r6,r4,16
  8048dc:	218cb03a 	or	r6,r4,r6
  8048e0:	010003c4 	movi	r4,15
  8048e4:	21c0182e 	bgeu	r4,r7,804948 <memset+0xc8>
  8048e8:	3b3ffc04 	addi	r12,r7,-16
  8048ec:	6018d13a 	srli	r12,r12,4
  8048f0:	1a000104 	addi	r8,r3,4
  8048f4:	1ac00204 	addi	r11,r3,8
  8048f8:	6008913a 	slli	r4,r12,4
  8048fc:	1a800304 	addi	r10,r3,12
  804900:	1813883a 	mov	r9,r3
  804904:	21000504 	addi	r4,r4,20
  804908:	1909883a 	add	r4,r3,r4
  80490c:	49800015 	stw	r6,0(r9)
  804910:	41800015 	stw	r6,0(r8)
  804914:	59800015 	stw	r6,0(r11)
  804918:	51800015 	stw	r6,0(r10)
  80491c:	42000404 	addi	r8,r8,16
  804920:	4a400404 	addi	r9,r9,16
  804924:	5ac00404 	addi	r11,r11,16
  804928:	52800404 	addi	r10,r10,16
  80492c:	413ff71e 	bne	r8,r4,80490c <__alt_mem_onchip_mem+0xff78490c>
  804930:	63000044 	addi	r12,r12,1
  804934:	6018913a 	slli	r12,r12,4
  804938:	39c003cc 	andi	r7,r7,15
  80493c:	010000c4 	movi	r4,3
  804940:	1b07883a 	add	r3,r3,r12
  804944:	21c00e2e 	bgeu	r4,r7,804980 <memset+0x100>
  804948:	1813883a 	mov	r9,r3
  80494c:	3811883a 	mov	r8,r7
  804950:	010000c4 	movi	r4,3
  804954:	49800015 	stw	r6,0(r9)
  804958:	423fff04 	addi	r8,r8,-4
  80495c:	4a400104 	addi	r9,r9,4
  804960:	223ffc36 	bltu	r4,r8,804954 <__alt_mem_onchip_mem+0xff784954>
  804964:	393fff04 	addi	r4,r7,-4
  804968:	2008d0ba 	srli	r4,r4,2
  80496c:	39c000cc 	andi	r7,r7,3
  804970:	21000044 	addi	r4,r4,1
  804974:	2109883a 	add	r4,r4,r4
  804978:	2109883a 	add	r4,r4,r4
  80497c:	1907883a 	add	r3,r3,r4
  804980:	38000526 	beq	r7,zero,804998 <memset+0x118>
  804984:	19cf883a 	add	r7,r3,r7
  804988:	19400005 	stb	r5,0(r3)
  80498c:	18c00044 	addi	r3,r3,1
  804990:	38fffd1e 	bne	r7,r3,804988 <__alt_mem_onchip_mem+0xff784988>
  804994:	f800283a 	ret
  804998:	f800283a 	ret
  80499c:	2007883a 	mov	r3,r4
  8049a0:	300f883a 	mov	r7,r6
  8049a4:	003fc706 	br	8048c4 <__alt_mem_onchip_mem+0xff7848c4>

008049a8 <_realloc_r>:
  8049a8:	defff604 	addi	sp,sp,-40
  8049ac:	dc800215 	stw	r18,8(sp)
  8049b0:	dfc00915 	stw	ra,36(sp)
  8049b4:	df000815 	stw	fp,32(sp)
  8049b8:	ddc00715 	stw	r23,28(sp)
  8049bc:	dd800615 	stw	r22,24(sp)
  8049c0:	dd400515 	stw	r21,20(sp)
  8049c4:	dd000415 	stw	r20,16(sp)
  8049c8:	dcc00315 	stw	r19,12(sp)
  8049cc:	dc400115 	stw	r17,4(sp)
  8049d0:	dc000015 	stw	r16,0(sp)
  8049d4:	3025883a 	mov	r18,r6
  8049d8:	2800b726 	beq	r5,zero,804cb8 <_realloc_r+0x310>
  8049dc:	282b883a 	mov	r21,r5
  8049e0:	2029883a 	mov	r20,r4
  8049e4:	080678c0 	call	80678c <__malloc_lock>
  8049e8:	a8bfff17 	ldw	r2,-4(r21)
  8049ec:	043fff04 	movi	r16,-4
  8049f0:	90c002c4 	addi	r3,r18,11
  8049f4:	01000584 	movi	r4,22
  8049f8:	acfffe04 	addi	r19,r21,-8
  8049fc:	1420703a 	and	r16,r2,r16
  804a00:	20c0332e 	bgeu	r4,r3,804ad0 <_realloc_r+0x128>
  804a04:	047ffe04 	movi	r17,-8
  804a08:	1c62703a 	and	r17,r3,r17
  804a0c:	8807883a 	mov	r3,r17
  804a10:	88005816 	blt	r17,zero,804b74 <_realloc_r+0x1cc>
  804a14:	8c805736 	bltu	r17,r18,804b74 <_realloc_r+0x1cc>
  804a18:	80c0300e 	bge	r16,r3,804adc <_realloc_r+0x134>
  804a1c:	07002074 	movhi	fp,129
  804a20:	e72aa204 	addi	fp,fp,-21880
  804a24:	e1c00217 	ldw	r7,8(fp)
  804a28:	9c09883a 	add	r4,r19,r16
  804a2c:	22000117 	ldw	r8,4(r4)
  804a30:	21c06326 	beq	r4,r7,804bc0 <_realloc_r+0x218>
  804a34:	017fff84 	movi	r5,-2
  804a38:	414a703a 	and	r5,r8,r5
  804a3c:	214b883a 	add	r5,r4,r5
  804a40:	29800117 	ldw	r6,4(r5)
  804a44:	3180004c 	andi	r6,r6,1
  804a48:	30003f26 	beq	r6,zero,804b48 <_realloc_r+0x1a0>
  804a4c:	1080004c 	andi	r2,r2,1
  804a50:	10008326 	beq	r2,zero,804c60 <_realloc_r+0x2b8>
  804a54:	900b883a 	mov	r5,r18
  804a58:	a009883a 	mov	r4,r20
  804a5c:	0803cec0 	call	803cec <_malloc_r>
  804a60:	1025883a 	mov	r18,r2
  804a64:	10011e26 	beq	r2,zero,804ee0 <_realloc_r+0x538>
  804a68:	a93fff17 	ldw	r4,-4(r21)
  804a6c:	10fffe04 	addi	r3,r2,-8
  804a70:	00bfff84 	movi	r2,-2
  804a74:	2084703a 	and	r2,r4,r2
  804a78:	9885883a 	add	r2,r19,r2
  804a7c:	1880ee26 	beq	r3,r2,804e38 <_realloc_r+0x490>
  804a80:	81bfff04 	addi	r6,r16,-4
  804a84:	00800904 	movi	r2,36
  804a88:	1180b836 	bltu	r2,r6,804d6c <_realloc_r+0x3c4>
  804a8c:	00c004c4 	movi	r3,19
  804a90:	19809636 	bltu	r3,r6,804cec <_realloc_r+0x344>
  804a94:	9005883a 	mov	r2,r18
  804a98:	a807883a 	mov	r3,r21
  804a9c:	19000017 	ldw	r4,0(r3)
  804aa0:	11000015 	stw	r4,0(r2)
  804aa4:	19000117 	ldw	r4,4(r3)
  804aa8:	11000115 	stw	r4,4(r2)
  804aac:	18c00217 	ldw	r3,8(r3)
  804ab0:	10c00215 	stw	r3,8(r2)
  804ab4:	a80b883a 	mov	r5,r21
  804ab8:	a009883a 	mov	r4,r20
  804abc:	08057740 	call	805774 <_free_r>
  804ac0:	a009883a 	mov	r4,r20
  804ac4:	08067b00 	call	8067b0 <__malloc_unlock>
  804ac8:	9005883a 	mov	r2,r18
  804acc:	00001206 	br	804b18 <_realloc_r+0x170>
  804ad0:	00c00404 	movi	r3,16
  804ad4:	1823883a 	mov	r17,r3
  804ad8:	003fce06 	br	804a14 <__alt_mem_onchip_mem+0xff784a14>
  804adc:	a825883a 	mov	r18,r21
  804ae0:	8445c83a 	sub	r2,r16,r17
  804ae4:	00c003c4 	movi	r3,15
  804ae8:	18802636 	bltu	r3,r2,804b84 <_realloc_r+0x1dc>
  804aec:	99800117 	ldw	r6,4(r19)
  804af0:	9c07883a 	add	r3,r19,r16
  804af4:	3180004c 	andi	r6,r6,1
  804af8:	3420b03a 	or	r16,r6,r16
  804afc:	9c000115 	stw	r16,4(r19)
  804b00:	18800117 	ldw	r2,4(r3)
  804b04:	10800054 	ori	r2,r2,1
  804b08:	18800115 	stw	r2,4(r3)
  804b0c:	a009883a 	mov	r4,r20
  804b10:	08067b00 	call	8067b0 <__malloc_unlock>
  804b14:	9005883a 	mov	r2,r18
  804b18:	dfc00917 	ldw	ra,36(sp)
  804b1c:	df000817 	ldw	fp,32(sp)
  804b20:	ddc00717 	ldw	r23,28(sp)
  804b24:	dd800617 	ldw	r22,24(sp)
  804b28:	dd400517 	ldw	r21,20(sp)
  804b2c:	dd000417 	ldw	r20,16(sp)
  804b30:	dcc00317 	ldw	r19,12(sp)
  804b34:	dc800217 	ldw	r18,8(sp)
  804b38:	dc400117 	ldw	r17,4(sp)
  804b3c:	dc000017 	ldw	r16,0(sp)
  804b40:	dec00a04 	addi	sp,sp,40
  804b44:	f800283a 	ret
  804b48:	017fff04 	movi	r5,-4
  804b4c:	414a703a 	and	r5,r8,r5
  804b50:	814d883a 	add	r6,r16,r5
  804b54:	30c01f16 	blt	r6,r3,804bd4 <_realloc_r+0x22c>
  804b58:	20800317 	ldw	r2,12(r4)
  804b5c:	20c00217 	ldw	r3,8(r4)
  804b60:	a825883a 	mov	r18,r21
  804b64:	3021883a 	mov	r16,r6
  804b68:	18800315 	stw	r2,12(r3)
  804b6c:	10c00215 	stw	r3,8(r2)
  804b70:	003fdb06 	br	804ae0 <__alt_mem_onchip_mem+0xff784ae0>
  804b74:	00800304 	movi	r2,12
  804b78:	a0800015 	stw	r2,0(r20)
  804b7c:	0005883a 	mov	r2,zero
  804b80:	003fe506 	br	804b18 <__alt_mem_onchip_mem+0xff784b18>
  804b84:	98c00117 	ldw	r3,4(r19)
  804b88:	9c4b883a 	add	r5,r19,r17
  804b8c:	11000054 	ori	r4,r2,1
  804b90:	18c0004c 	andi	r3,r3,1
  804b94:	1c62b03a 	or	r17,r3,r17
  804b98:	9c400115 	stw	r17,4(r19)
  804b9c:	29000115 	stw	r4,4(r5)
  804ba0:	2885883a 	add	r2,r5,r2
  804ba4:	10c00117 	ldw	r3,4(r2)
  804ba8:	29400204 	addi	r5,r5,8
  804bac:	a009883a 	mov	r4,r20
  804bb0:	18c00054 	ori	r3,r3,1
  804bb4:	10c00115 	stw	r3,4(r2)
  804bb8:	08057740 	call	805774 <_free_r>
  804bbc:	003fd306 	br	804b0c <__alt_mem_onchip_mem+0xff784b0c>
  804bc0:	017fff04 	movi	r5,-4
  804bc4:	414a703a 	and	r5,r8,r5
  804bc8:	89800404 	addi	r6,r17,16
  804bcc:	8151883a 	add	r8,r16,r5
  804bd0:	4180590e 	bge	r8,r6,804d38 <_realloc_r+0x390>
  804bd4:	1080004c 	andi	r2,r2,1
  804bd8:	103f9e1e 	bne	r2,zero,804a54 <__alt_mem_onchip_mem+0xff784a54>
  804bdc:	adbffe17 	ldw	r22,-8(r21)
  804be0:	00bfff04 	movi	r2,-4
  804be4:	9dadc83a 	sub	r22,r19,r22
  804be8:	b1800117 	ldw	r6,4(r22)
  804bec:	3084703a 	and	r2,r6,r2
  804bf0:	20002026 	beq	r4,zero,804c74 <_realloc_r+0x2cc>
  804bf4:	80af883a 	add	r23,r16,r2
  804bf8:	b96f883a 	add	r23,r23,r5
  804bfc:	21c05f26 	beq	r4,r7,804d7c <_realloc_r+0x3d4>
  804c00:	b8c01c16 	blt	r23,r3,804c74 <_realloc_r+0x2cc>
  804c04:	20800317 	ldw	r2,12(r4)
  804c08:	20c00217 	ldw	r3,8(r4)
  804c0c:	81bfff04 	addi	r6,r16,-4
  804c10:	01000904 	movi	r4,36
  804c14:	18800315 	stw	r2,12(r3)
  804c18:	10c00215 	stw	r3,8(r2)
  804c1c:	b0c00217 	ldw	r3,8(r22)
  804c20:	b0800317 	ldw	r2,12(r22)
  804c24:	b4800204 	addi	r18,r22,8
  804c28:	18800315 	stw	r2,12(r3)
  804c2c:	10c00215 	stw	r3,8(r2)
  804c30:	21801b36 	bltu	r4,r6,804ca0 <_realloc_r+0x2f8>
  804c34:	008004c4 	movi	r2,19
  804c38:	1180352e 	bgeu	r2,r6,804d10 <_realloc_r+0x368>
  804c3c:	a8800017 	ldw	r2,0(r21)
  804c40:	b0800215 	stw	r2,8(r22)
  804c44:	a8800117 	ldw	r2,4(r21)
  804c48:	b0800315 	stw	r2,12(r22)
  804c4c:	008006c4 	movi	r2,27
  804c50:	11807f36 	bltu	r2,r6,804e50 <_realloc_r+0x4a8>
  804c54:	b0800404 	addi	r2,r22,16
  804c58:	ad400204 	addi	r21,r21,8
  804c5c:	00002d06 	br	804d14 <_realloc_r+0x36c>
  804c60:	adbffe17 	ldw	r22,-8(r21)
  804c64:	00bfff04 	movi	r2,-4
  804c68:	9dadc83a 	sub	r22,r19,r22
  804c6c:	b1000117 	ldw	r4,4(r22)
  804c70:	2084703a 	and	r2,r4,r2
  804c74:	b03f7726 	beq	r22,zero,804a54 <__alt_mem_onchip_mem+0xff784a54>
  804c78:	80af883a 	add	r23,r16,r2
  804c7c:	b8ff7516 	blt	r23,r3,804a54 <__alt_mem_onchip_mem+0xff784a54>
  804c80:	b0800317 	ldw	r2,12(r22)
  804c84:	b0c00217 	ldw	r3,8(r22)
  804c88:	81bfff04 	addi	r6,r16,-4
  804c8c:	01000904 	movi	r4,36
  804c90:	18800315 	stw	r2,12(r3)
  804c94:	10c00215 	stw	r3,8(r2)
  804c98:	b4800204 	addi	r18,r22,8
  804c9c:	21bfe52e 	bgeu	r4,r6,804c34 <__alt_mem_onchip_mem+0xff784c34>
  804ca0:	a80b883a 	mov	r5,r21
  804ca4:	9009883a 	mov	r4,r18
  804ca8:	08047240 	call	804724 <memmove>
  804cac:	b821883a 	mov	r16,r23
  804cb0:	b027883a 	mov	r19,r22
  804cb4:	003f8a06 	br	804ae0 <__alt_mem_onchip_mem+0xff784ae0>
  804cb8:	300b883a 	mov	r5,r6
  804cbc:	dfc00917 	ldw	ra,36(sp)
  804cc0:	df000817 	ldw	fp,32(sp)
  804cc4:	ddc00717 	ldw	r23,28(sp)
  804cc8:	dd800617 	ldw	r22,24(sp)
  804ccc:	dd400517 	ldw	r21,20(sp)
  804cd0:	dd000417 	ldw	r20,16(sp)
  804cd4:	dcc00317 	ldw	r19,12(sp)
  804cd8:	dc800217 	ldw	r18,8(sp)
  804cdc:	dc400117 	ldw	r17,4(sp)
  804ce0:	dc000017 	ldw	r16,0(sp)
  804ce4:	dec00a04 	addi	sp,sp,40
  804ce8:	0803cec1 	jmpi	803cec <_malloc_r>
  804cec:	a8c00017 	ldw	r3,0(r21)
  804cf0:	90c00015 	stw	r3,0(r18)
  804cf4:	a8c00117 	ldw	r3,4(r21)
  804cf8:	90c00115 	stw	r3,4(r18)
  804cfc:	00c006c4 	movi	r3,27
  804d00:	19804536 	bltu	r3,r6,804e18 <_realloc_r+0x470>
  804d04:	90800204 	addi	r2,r18,8
  804d08:	a8c00204 	addi	r3,r21,8
  804d0c:	003f6306 	br	804a9c <__alt_mem_onchip_mem+0xff784a9c>
  804d10:	9005883a 	mov	r2,r18
  804d14:	a8c00017 	ldw	r3,0(r21)
  804d18:	b821883a 	mov	r16,r23
  804d1c:	b027883a 	mov	r19,r22
  804d20:	10c00015 	stw	r3,0(r2)
  804d24:	a8c00117 	ldw	r3,4(r21)
  804d28:	10c00115 	stw	r3,4(r2)
  804d2c:	a8c00217 	ldw	r3,8(r21)
  804d30:	10c00215 	stw	r3,8(r2)
  804d34:	003f6a06 	br	804ae0 <__alt_mem_onchip_mem+0xff784ae0>
  804d38:	9c67883a 	add	r19,r19,r17
  804d3c:	4445c83a 	sub	r2,r8,r17
  804d40:	e4c00215 	stw	r19,8(fp)
  804d44:	10800054 	ori	r2,r2,1
  804d48:	98800115 	stw	r2,4(r19)
  804d4c:	a8bfff17 	ldw	r2,-4(r21)
  804d50:	a009883a 	mov	r4,r20
  804d54:	1080004c 	andi	r2,r2,1
  804d58:	1462b03a 	or	r17,r2,r17
  804d5c:	ac7fff15 	stw	r17,-4(r21)
  804d60:	08067b00 	call	8067b0 <__malloc_unlock>
  804d64:	a805883a 	mov	r2,r21
  804d68:	003f6b06 	br	804b18 <__alt_mem_onchip_mem+0xff784b18>
  804d6c:	a80b883a 	mov	r5,r21
  804d70:	9009883a 	mov	r4,r18
  804d74:	08047240 	call	804724 <memmove>
  804d78:	003f4e06 	br	804ab4 <__alt_mem_onchip_mem+0xff784ab4>
  804d7c:	89000404 	addi	r4,r17,16
  804d80:	b93fbc16 	blt	r23,r4,804c74 <__alt_mem_onchip_mem+0xff784c74>
  804d84:	b0800317 	ldw	r2,12(r22)
  804d88:	b0c00217 	ldw	r3,8(r22)
  804d8c:	81bfff04 	addi	r6,r16,-4
  804d90:	01000904 	movi	r4,36
  804d94:	18800315 	stw	r2,12(r3)
  804d98:	10c00215 	stw	r3,8(r2)
  804d9c:	b4800204 	addi	r18,r22,8
  804da0:	21804336 	bltu	r4,r6,804eb0 <_realloc_r+0x508>
  804da4:	008004c4 	movi	r2,19
  804da8:	11803f2e 	bgeu	r2,r6,804ea8 <_realloc_r+0x500>
  804dac:	a8800017 	ldw	r2,0(r21)
  804db0:	b0800215 	stw	r2,8(r22)
  804db4:	a8800117 	ldw	r2,4(r21)
  804db8:	b0800315 	stw	r2,12(r22)
  804dbc:	008006c4 	movi	r2,27
  804dc0:	11803f36 	bltu	r2,r6,804ec0 <_realloc_r+0x518>
  804dc4:	b0800404 	addi	r2,r22,16
  804dc8:	ad400204 	addi	r21,r21,8
  804dcc:	a8c00017 	ldw	r3,0(r21)
  804dd0:	10c00015 	stw	r3,0(r2)
  804dd4:	a8c00117 	ldw	r3,4(r21)
  804dd8:	10c00115 	stw	r3,4(r2)
  804ddc:	a8c00217 	ldw	r3,8(r21)
  804de0:	10c00215 	stw	r3,8(r2)
  804de4:	b447883a 	add	r3,r22,r17
  804de8:	bc45c83a 	sub	r2,r23,r17
  804dec:	e0c00215 	stw	r3,8(fp)
  804df0:	10800054 	ori	r2,r2,1
  804df4:	18800115 	stw	r2,4(r3)
  804df8:	b0800117 	ldw	r2,4(r22)
  804dfc:	a009883a 	mov	r4,r20
  804e00:	1080004c 	andi	r2,r2,1
  804e04:	1462b03a 	or	r17,r2,r17
  804e08:	b4400115 	stw	r17,4(r22)
  804e0c:	08067b00 	call	8067b0 <__malloc_unlock>
  804e10:	9005883a 	mov	r2,r18
  804e14:	003f4006 	br	804b18 <__alt_mem_onchip_mem+0xff784b18>
  804e18:	a8c00217 	ldw	r3,8(r21)
  804e1c:	90c00215 	stw	r3,8(r18)
  804e20:	a8c00317 	ldw	r3,12(r21)
  804e24:	90c00315 	stw	r3,12(r18)
  804e28:	30801126 	beq	r6,r2,804e70 <_realloc_r+0x4c8>
  804e2c:	90800404 	addi	r2,r18,16
  804e30:	a8c00404 	addi	r3,r21,16
  804e34:	003f1906 	br	804a9c <__alt_mem_onchip_mem+0xff784a9c>
  804e38:	90ffff17 	ldw	r3,-4(r18)
  804e3c:	00bfff04 	movi	r2,-4
  804e40:	a825883a 	mov	r18,r21
  804e44:	1884703a 	and	r2,r3,r2
  804e48:	80a1883a 	add	r16,r16,r2
  804e4c:	003f2406 	br	804ae0 <__alt_mem_onchip_mem+0xff784ae0>
  804e50:	a8800217 	ldw	r2,8(r21)
  804e54:	b0800415 	stw	r2,16(r22)
  804e58:	a8800317 	ldw	r2,12(r21)
  804e5c:	b0800515 	stw	r2,20(r22)
  804e60:	31000a26 	beq	r6,r4,804e8c <_realloc_r+0x4e4>
  804e64:	b0800604 	addi	r2,r22,24
  804e68:	ad400404 	addi	r21,r21,16
  804e6c:	003fa906 	br	804d14 <__alt_mem_onchip_mem+0xff784d14>
  804e70:	a9000417 	ldw	r4,16(r21)
  804e74:	90800604 	addi	r2,r18,24
  804e78:	a8c00604 	addi	r3,r21,24
  804e7c:	91000415 	stw	r4,16(r18)
  804e80:	a9000517 	ldw	r4,20(r21)
  804e84:	91000515 	stw	r4,20(r18)
  804e88:	003f0406 	br	804a9c <__alt_mem_onchip_mem+0xff784a9c>
  804e8c:	a8c00417 	ldw	r3,16(r21)
  804e90:	ad400604 	addi	r21,r21,24
  804e94:	b0800804 	addi	r2,r22,32
  804e98:	b0c00615 	stw	r3,24(r22)
  804e9c:	a8ffff17 	ldw	r3,-4(r21)
  804ea0:	b0c00715 	stw	r3,28(r22)
  804ea4:	003f9b06 	br	804d14 <__alt_mem_onchip_mem+0xff784d14>
  804ea8:	9005883a 	mov	r2,r18
  804eac:	003fc706 	br	804dcc <__alt_mem_onchip_mem+0xff784dcc>
  804eb0:	a80b883a 	mov	r5,r21
  804eb4:	9009883a 	mov	r4,r18
  804eb8:	08047240 	call	804724 <memmove>
  804ebc:	003fc906 	br	804de4 <__alt_mem_onchip_mem+0xff784de4>
  804ec0:	a8800217 	ldw	r2,8(r21)
  804ec4:	b0800415 	stw	r2,16(r22)
  804ec8:	a8800317 	ldw	r2,12(r21)
  804ecc:	b0800515 	stw	r2,20(r22)
  804ed0:	31000726 	beq	r6,r4,804ef0 <_realloc_r+0x548>
  804ed4:	b0800604 	addi	r2,r22,24
  804ed8:	ad400404 	addi	r21,r21,16
  804edc:	003fbb06 	br	804dcc <__alt_mem_onchip_mem+0xff784dcc>
  804ee0:	a009883a 	mov	r4,r20
  804ee4:	08067b00 	call	8067b0 <__malloc_unlock>
  804ee8:	0005883a 	mov	r2,zero
  804eec:	003f0a06 	br	804b18 <__alt_mem_onchip_mem+0xff784b18>
  804ef0:	a8c00417 	ldw	r3,16(r21)
  804ef4:	ad400604 	addi	r21,r21,24
  804ef8:	b0800804 	addi	r2,r22,32
  804efc:	b0c00615 	stw	r3,24(r22)
  804f00:	a8ffff17 	ldw	r3,-4(r21)
